
build/src/user/sh:     file format elf64-littleaarch64


Disassembly of section .init:

0000000000400120 <.init>:
  400120:	a9bf7bfd 	stp	x29, x30, [sp, #-16]!
  400124:	910003fd 	mov	x29, sp
  400128:	a8c17bfd 	ldp	x29, x30, [sp], #16
  40012c:	d65f03c0 	ret

Disassembly of section .text:

0000000000400130 <.text>:
  400130:	a9bf7bf3 	stp	x19, x30, [sp, #-16]!
  400134:	2a0003f3 	mov	w19, w0
  400138:	940005db 	bl	0x4018a4
  40013c:	940005db 	bl	0x4018a8
  400140:	94001567 	bl	0x4056dc
  400144:	2a1303e0 	mov	w0, w19
  400148:	940011c1 	bl	0x40484c
  40014c:	d280001d 	mov	x29, #0x0                   	// #0
  400150:	d280001e 	mov	x30, #0x0                   	// #0
  400154:	910003e0 	mov	x0, sp
  400158:	90000001 	adrp	x1, 0x400000
  40015c:	91000021 	add	x1, x1, #0x0
  400160:	927cec1f 	and	sp, x0, #0xfffffffffffffff0
  400164:	14000001 	b	0x400168
  400168:	aa0003e2 	mov	x2, x0
  40016c:	b0000044 	adrp	x4, 0x409000
  400170:	b0000043 	adrp	x3, 0x409000
  400174:	b0000040 	adrp	x0, 0x409000
  400178:	f947cc84 	ldr	x4, [x4, #3992]
  40017c:	d2800005 	mov	x5, #0x0                   	// #0
  400180:	f9478c63 	ldr	x3, [x3, #3864]
  400184:	f947c000 	ldr	x0, [x0, #3968]
  400188:	f8408441 	ldr	x1, [x2], #8
  40018c:	1400057d 	b	0x401780
  400190:	d0000040 	adrp	x0, 0x40a000
  400194:	910be000 	add	x0, x0, #0x2f8
  400198:	d0000041 	adrp	x1, 0x40a000
  40019c:	910be021 	add	x1, x1, #0x2f8
  4001a0:	eb00003f 	cmp	x1, x0
  4001a4:	540000c0 	b.eq	0x4001bc  // b.none
  4001a8:	b0000041 	adrp	x1, 0x409000
  4001ac:	f947b421 	ldr	x1, [x1, #3944]
  4001b0:	b4000061 	cbz	x1, 0x4001bc
  4001b4:	aa0103f0 	mov	x16, x1
  4001b8:	d61f0200 	br	x16
  4001bc:	d65f03c0 	ret
  4001c0:	d0000040 	adrp	x0, 0x40a000
  4001c4:	910be000 	add	x0, x0, #0x2f8
  4001c8:	d0000041 	adrp	x1, 0x40a000
  4001cc:	910be021 	add	x1, x1, #0x2f8
  4001d0:	cb000021 	sub	x1, x1, x0
  4001d4:	d37ffc22 	lsr	x2, x1, #63
  4001d8:	8b810c41 	add	x1, x2, x1, asr #3
  4001dc:	eb8107ff 	cmp	xzr, x1, asr #1
  4001e0:	9341fc21 	asr	x1, x1, #1
  4001e4:	540000c0 	b.eq	0x4001fc  // b.none
  4001e8:	b0000042 	adrp	x2, 0x409000
  4001ec:	f9479c42 	ldr	x2, [x2, #3896]
  4001f0:	b4000062 	cbz	x2, 0x4001fc
  4001f4:	aa0203f0 	mov	x16, x2
  4001f8:	d61f0200 	br	x16
  4001fc:	d65f03c0 	ret
  400200:	a9be7bfd 	stp	x29, x30, [sp, #-32]!
  400204:	910003fd 	mov	x29, sp
  400208:	f9000bf3 	str	x19, [sp, #16]
  40020c:	d0000053 	adrp	x19, 0x40a000
  400210:	394be260 	ldrb	w0, [x19, #760]
  400214:	35000140 	cbnz	w0, 0x40023c
  400218:	b0000040 	adrp	x0, 0x409000
  40021c:	f9477c00 	ldr	x0, [x0, #3832]
  400220:	b4000080 	cbz	x0, 0x400230
  400224:	d0000040 	adrp	x0, 0x40a000
  400228:	f9400000 	ldr	x0, [x0]
  40022c:	d503201f 	nop
  400230:	97ffffd8 	bl	0x400190
  400234:	52800020 	mov	w0, #0x1                   	// #1
  400238:	390be260 	strb	w0, [x19, #760]
  40023c:	f9400bf3 	ldr	x19, [sp, #16]
  400240:	a8c27bfd 	ldp	x29, x30, [sp], #32
  400244:	d65f03c0 	ret
  400248:	17ffffde 	b	0x4001c0
  40024c:	a9be7bfd 	stp	x29, x30, [sp, #-32]!
  400250:	910003fd 	mov	x29, sp
  400254:	f9000fe0 	str	x0, [sp, #24]
  400258:	d0000040 	adrp	x0, 0x40a000
  40025c:	910c0000 	add	x0, x0, #0x300
  400260:	f9400001 	ldr	x1, [x0]
  400264:	f9400fe0 	ldr	x0, [sp, #24]
  400268:	8b000021 	add	x1, x1, x0
  40026c:	d0000040 	adrp	x0, 0x40a000
  400270:	910c0000 	add	x0, x0, #0x300
  400274:	f9000001 	str	x1, [x0]
  400278:	d0000040 	adrp	x0, 0x40a000
  40027c:	910c0000 	add	x0, x0, #0x300
  400280:	f9400001 	ldr	x1, [x0]
  400284:	d284e200 	mov	x0, #0x2710                	// #10000
  400288:	eb00003f 	cmp	x1, x0
  40028c:	54000209 	b.ls	0x4002cc  // b.plast
  400290:	b0000044 	adrp	x4, 0x409000
  400294:	f947d080 	ldr	x0, [x4, #4000]
  400298:	f9400000 	ldr	x0, [x0]
  40029c:	aa0003e3 	mov	x3, x0
  4002a0:	d2800322 	mov	x2, #0x19                  	// #25
  4002a4:	d2800021 	mov	x1, #0x1                   	// #1
  4002a8:	f0000020 	adrp	x0, 0x407000
  4002ac:	912e0000 	add	x0, x0, #0xb80
  4002b0:	b0000044 	adrp	x4, 0x409000
  4002b4:	f947d484 	ldr	x4, [x4, #4008]
  4002b8:	d63f0080 	blr	x4
  4002bc:	52800020 	mov	w0, #0x1                   	// #1
  4002c0:	b0000044 	adrp	x4, 0x409000
  4002c4:	f947d881 	ldr	x1, [x4, #4016]
  4002c8:	d63f0020 	blr	x1
  4002cc:	d0000040 	adrp	x0, 0x40a000
  4002d0:	910c0000 	add	x0, x0, #0x300
  4002d4:	f9400001 	ldr	x1, [x0]
  4002d8:	f9400fe0 	ldr	x0, [sp, #24]
  4002dc:	cb000021 	sub	x1, x1, x0
  4002e0:	d0000040 	adrp	x0, 0x40a000
  4002e4:	910c2000 	add	x0, x0, #0x308
  4002e8:	8b000020 	add	x0, x1, x0
  4002ec:	a8c27bfd 	ldp	x29, x30, [sp], #32
  4002f0:	d65f03c0 	ret
  4002f4:	a9be7bfd 	stp	x29, x30, [sp, #-32]!
  4002f8:	910003fd 	mov	x29, sp
  4002fc:	f9000fe0 	str	x0, [sp, #24]
  400300:	b0000043 	adrp	x3, 0x409000
  400304:	f947d060 	ldr	x0, [x3, #4000]
  400308:	f9400003 	ldr	x3, [x0]
  40030c:	f9400fe2 	ldr	x2, [sp, #24]
  400310:	f0000020 	adrp	x0, 0x407000
  400314:	912e8001 	add	x1, x0, #0xba0
  400318:	aa0303e0 	mov	x0, x3
  40031c:	b0000043 	adrp	x3, 0x409000
  400320:	f9479463 	ldr	x3, [x3, #3880]
  400324:	d63f0060 	blr	x3
  400328:	52800020 	mov	w0, #0x1                   	// #1
  40032c:	b0000043 	adrp	x3, 0x409000
  400330:	f947d861 	ldr	x1, [x3, #4016]
  400334:	d63f0020 	blr	x1
  400338:	a9ba7bfd 	stp	x29, x30, [sp, #-96]!
  40033c:	910003fd 	mov	x29, sp
  400340:	f9000fe0 	str	x0, [sp, #24]
  400344:	b0000043 	adrp	x3, 0x409000
  400348:	f9476860 	ldr	x0, [x3, #3792]
  40034c:	f9400001 	ldr	x1, [x0]
  400350:	f9002fe1 	str	x1, [sp, #88]
  400354:	d2800001 	mov	x1, #0x0                   	// #0
  400358:	f9400fe0 	ldr	x0, [sp, #24]
  40035c:	f100001f 	cmp	x0, #0x0
  400360:	540000a1 	b.ne	0x400374  // b.any
  400364:	52800000 	mov	w0, #0x0                   	// #0
  400368:	b0000043 	adrp	x3, 0x409000
  40036c:	f947d861 	ldr	x1, [x3, #4016]
  400370:	d63f0020 	blr	x1
  400374:	f9400fe0 	ldr	x0, [sp, #24]
  400378:	b9400000 	ldr	w0, [x0]
  40037c:	7100141f 	cmp	w0, #0x5
  400380:	54001600 	b.eq	0x400640  // b.none
  400384:	7100141f 	cmp	w0, #0x5
  400388:	540001ac 	b.gt	0x4003bc
  40038c:	7100101f 	cmp	w0, #0x4
  400390:	54000a80 	b.eq	0x4004e0  // b.none
  400394:	7100101f 	cmp	w0, #0x4
  400398:	5400012c 	b.gt	0x4003bc
  40039c:	71000c1f 	cmp	w0, #0x3
  4003a0:	54000c00 	b.eq	0x400520  // b.none
  4003a4:	71000c1f 	cmp	w0, #0x3
  4003a8:	540000ac 	b.gt	0x4003bc
  4003ac:	7100041f 	cmp	w0, #0x1
  4003b0:	540000c0 	b.eq	0x4003c8  // b.none
  4003b4:	7100081f 	cmp	w0, #0x2
  4003b8:	54000480 	b.eq	0x400448  // b.none
  4003bc:	f0000020 	adrp	x0, 0x407000
  4003c0:	912ea000 	add	x0, x0, #0xba8
  4003c4:	97ffffcc 	bl	0x4002f4
  4003c8:	f9400fe0 	ldr	x0, [sp, #24]
  4003cc:	f90027e0 	str	x0, [sp, #72]
  4003d0:	f94027e0 	ldr	x0, [sp, #72]
  4003d4:	f9400400 	ldr	x0, [x0, #8]
  4003d8:	f100001f 	cmp	x0, #0x0
  4003dc:	540000a1 	b.ne	0x4003f0  // b.any
  4003e0:	52800000 	mov	w0, #0x0                   	// #0
  4003e4:	b0000043 	adrp	x3, 0x409000
  4003e8:	f947d861 	ldr	x1, [x3, #4016]
  4003ec:	d63f0020 	blr	x1
  4003f0:	f94027e0 	ldr	x0, [sp, #72]
  4003f4:	f9400402 	ldr	x2, [x0, #8]
  4003f8:	f94027e0 	ldr	x0, [sp, #72]
  4003fc:	91002000 	add	x0, x0, #0x8
  400400:	aa0003e1 	mov	x1, x0
  400404:	aa0203e0 	mov	x0, x2
  400408:	b0000043 	adrp	x3, 0x409000
  40040c:	f947b062 	ldr	x2, [x3, #3936]
  400410:	d63f0040 	blr	x2
  400414:	b0000043 	adrp	x3, 0x409000
  400418:	f947d060 	ldr	x0, [x3, #4000]
  40041c:	f9400003 	ldr	x3, [x0]
  400420:	f94027e0 	ldr	x0, [sp, #72]
  400424:	f9400400 	ldr	x0, [x0, #8]
  400428:	aa0003e2 	mov	x2, x0
  40042c:	f0000020 	adrp	x0, 0x407000
  400430:	912ec001 	add	x1, x0, #0xbb0
  400434:	aa0303e0 	mov	x0, x3
  400438:	b0000043 	adrp	x3, 0x409000
  40043c:	f9479463 	ldr	x3, [x3, #3880]
  400440:	d63f0060 	blr	x3
  400444:	14000088 	b	0x400664
  400448:	f9400fe0 	ldr	x0, [sp, #24]
  40044c:	f90023e0 	str	x0, [sp, #64]
  400450:	f94023e0 	ldr	x0, [sp, #64]
  400454:	b9402400 	ldr	w0, [x0, #36]
  400458:	b0000043 	adrp	x3, 0x409000
  40045c:	f947ec61 	ldr	x1, [x3, #4056]
  400460:	d63f0020 	blr	x1
  400464:	f94023e0 	ldr	x0, [sp, #64]
  400468:	f9400802 	ldr	x2, [x0, #16]
  40046c:	f94023e0 	ldr	x0, [sp, #64]
  400470:	b9402000 	ldr	w0, [x0, #32]
  400474:	2a0003e1 	mov	w1, w0
  400478:	aa0203e0 	mov	x0, x2
  40047c:	b0000043 	adrp	x3, 0x409000
  400480:	f947e462 	ldr	x2, [x3, #4040]
  400484:	d63f0040 	blr	x2
  400488:	7100001f 	cmp	w0, #0x0
  40048c:	5400022a 	b.ge	0x4004d0  // b.tcont
  400490:	b0000043 	adrp	x3, 0x409000
  400494:	f947d060 	ldr	x0, [x3, #4000]
  400498:	f9400003 	ldr	x3, [x0]
  40049c:	f94023e0 	ldr	x0, [sp, #64]
  4004a0:	f9400800 	ldr	x0, [x0, #16]
  4004a4:	aa0003e2 	mov	x2, x0
  4004a8:	f0000020 	adrp	x0, 0x407000
  4004ac:	912f0001 	add	x1, x0, #0xbc0
  4004b0:	aa0303e0 	mov	x0, x3
  4004b4:	b0000043 	adrp	x3, 0x409000
  4004b8:	f9479463 	ldr	x3, [x3, #3880]
  4004bc:	d63f0060 	blr	x3
  4004c0:	52800020 	mov	w0, #0x1                   	// #1
  4004c4:	b0000043 	adrp	x3, 0x409000
  4004c8:	f947d861 	ldr	x1, [x3, #4016]
  4004cc:	d63f0020 	blr	x1
  4004d0:	f94023e0 	ldr	x0, [sp, #64]
  4004d4:	f9400400 	ldr	x0, [x0, #8]
  4004d8:	97ffff98 	bl	0x400338
  4004dc:	14000062 	b	0x400664
  4004e0:	f9400fe0 	ldr	x0, [sp, #24]
  4004e4:	f9001be0 	str	x0, [sp, #48]
  4004e8:	9400010d 	bl	0x40091c
  4004ec:	7100001f 	cmp	w0, #0x0
  4004f0:	54000081 	b.ne	0x400500  // b.any
  4004f4:	f9401be0 	ldr	x0, [sp, #48]
  4004f8:	f9400400 	ldr	x0, [x0, #8]
  4004fc:	97ffff8f 	bl	0x400338
  400500:	d2800000 	mov	x0, #0x0                   	// #0
  400504:	b0000043 	adrp	x3, 0x409000
  400508:	f947a461 	ldr	x1, [x3, #3912]
  40050c:	d63f0020 	blr	x1
  400510:	f9401be0 	ldr	x0, [sp, #48]
  400514:	f9400800 	ldr	x0, [x0, #16]
  400518:	97ffff88 	bl	0x400338
  40051c:	14000052 	b	0x400664
  400520:	f9400fe0 	ldr	x0, [sp, #24]
  400524:	f9001fe0 	str	x0, [sp, #56]
  400528:	910143e0 	add	x0, sp, #0x50
  40052c:	b0000043 	adrp	x3, 0x409000
  400530:	f9479061 	ldr	x1, [x3, #3872]
  400534:	d63f0020 	blr	x1
  400538:	7100001f 	cmp	w0, #0x0
  40053c:	5400008a 	b.ge	0x40054c  // b.tcont
  400540:	f0000020 	adrp	x0, 0x407000
  400544:	912f4000 	add	x0, x0, #0xbd0
  400548:	97ffff6b 	bl	0x4002f4
  40054c:	940000f4 	bl	0x40091c
  400550:	7100001f 	cmp	w0, #0x0
  400554:	54000281 	b.ne	0x4005a4  // b.any
  400558:	52800020 	mov	w0, #0x1                   	// #1
  40055c:	b0000043 	adrp	x3, 0x409000
  400560:	f947ec61 	ldr	x1, [x3, #4056]
  400564:	d63f0020 	blr	x1
  400568:	b94057e0 	ldr	w0, [sp, #84]
  40056c:	b0000043 	adrp	x3, 0x409000
  400570:	f947c861 	ldr	x1, [x3, #3984]
  400574:	d63f0020 	blr	x1
  400578:	b94053e0 	ldr	w0, [sp, #80]
  40057c:	b0000043 	adrp	x3, 0x409000
  400580:	f947ec61 	ldr	x1, [x3, #4056]
  400584:	d63f0020 	blr	x1
  400588:	b94057e0 	ldr	w0, [sp, #84]
  40058c:	b0000043 	adrp	x3, 0x409000
  400590:	f947ec61 	ldr	x1, [x3, #4056]
  400594:	d63f0020 	blr	x1
  400598:	f9401fe0 	ldr	x0, [sp, #56]
  40059c:	f9400400 	ldr	x0, [x0, #8]
  4005a0:	97ffff66 	bl	0x400338
  4005a4:	940000de 	bl	0x40091c
  4005a8:	7100001f 	cmp	w0, #0x0
  4005ac:	54000281 	b.ne	0x4005fc  // b.any
  4005b0:	52800000 	mov	w0, #0x0                   	// #0
  4005b4:	b0000043 	adrp	x3, 0x409000
  4005b8:	f947ec61 	ldr	x1, [x3, #4056]
  4005bc:	d63f0020 	blr	x1
  4005c0:	b94053e0 	ldr	w0, [sp, #80]
  4005c4:	b0000043 	adrp	x3, 0x409000
  4005c8:	f947c861 	ldr	x1, [x3, #3984]
  4005cc:	d63f0020 	blr	x1
  4005d0:	b94053e0 	ldr	w0, [sp, #80]
  4005d4:	b0000043 	adrp	x3, 0x409000
  4005d8:	f947ec61 	ldr	x1, [x3, #4056]
  4005dc:	d63f0020 	blr	x1
  4005e0:	b94057e0 	ldr	w0, [sp, #84]
  4005e4:	b0000043 	adrp	x3, 0x409000
  4005e8:	f947ec61 	ldr	x1, [x3, #4056]
  4005ec:	d63f0020 	blr	x1
  4005f0:	f9401fe0 	ldr	x0, [sp, #56]
  4005f4:	f9400800 	ldr	x0, [x0, #16]
  4005f8:	97ffff50 	bl	0x400338
  4005fc:	b94053e0 	ldr	w0, [sp, #80]
  400600:	b0000043 	adrp	x3, 0x409000
  400604:	f947ec61 	ldr	x1, [x3, #4056]
  400608:	d63f0020 	blr	x1
  40060c:	b94057e0 	ldr	w0, [sp, #84]
  400610:	b0000043 	adrp	x3, 0x409000
  400614:	f947ec61 	ldr	x1, [x3, #4056]
  400618:	d63f0020 	blr	x1
  40061c:	d2800000 	mov	x0, #0x0                   	// #0
  400620:	b0000043 	adrp	x3, 0x409000
  400624:	f947a461 	ldr	x1, [x3, #3912]
  400628:	d63f0020 	blr	x1
  40062c:	d2800000 	mov	x0, #0x0                   	// #0
  400630:	b0000043 	adrp	x3, 0x409000
  400634:	f947a461 	ldr	x1, [x3, #3912]
  400638:	d63f0020 	blr	x1
  40063c:	1400000a 	b	0x400664
  400640:	f9400fe0 	ldr	x0, [sp, #24]
  400644:	f90017e0 	str	x0, [sp, #40]
  400648:	940000b5 	bl	0x40091c
  40064c:	7100001f 	cmp	w0, #0x0
  400650:	54000081 	b.ne	0x400660  // b.any
  400654:	f94017e0 	ldr	x0, [sp, #40]
  400658:	f9400400 	ldr	x0, [x0, #8]
  40065c:	97ffff37 	bl	0x400338
  400660:	d503201f 	nop
  400664:	52800000 	mov	w0, #0x0                   	// #0
  400668:	b0000043 	adrp	x3, 0x409000
  40066c:	f947d861 	ldr	x1, [x3, #4016]
  400670:	d63f0020 	blr	x1
  400674:	a9be7bfd 	stp	x29, x30, [sp, #-32]!
  400678:	910003fd 	mov	x29, sp
  40067c:	f9000fe0 	str	x0, [sp, #24]
  400680:	b90017e1 	str	w1, [sp, #20]
  400684:	b0000044 	adrp	x4, 0x409000
  400688:	f947d080 	ldr	x0, [x4, #4000]
  40068c:	f9400000 	ldr	x0, [x0]
  400690:	aa0003e3 	mov	x3, x0
  400694:	d2800042 	mov	x2, #0x2                   	// #2
  400698:	d2800021 	mov	x1, #0x1                   	// #1
  40069c:	f0000020 	adrp	x0, 0x407000
  4006a0:	912f6000 	add	x0, x0, #0xbd8
  4006a4:	b0000044 	adrp	x4, 0x409000
  4006a8:	f947d484 	ldr	x4, [x4, #4008]
  4006ac:	d63f0080 	blr	x4
  4006b0:	b98017e0 	ldrsw	x0, [sp, #20]
  4006b4:	aa0003e2 	mov	x2, x0
  4006b8:	52800001 	mov	w1, #0x0                   	// #0
  4006bc:	f9400fe0 	ldr	x0, [sp, #24]
  4006c0:	b0000044 	adrp	x4, 0x409000
  4006c4:	f947bc83 	ldr	x3, [x4, #3960]
  4006c8:	d63f0060 	blr	x3
  4006cc:	b0000044 	adrp	x4, 0x409000
  4006d0:	f947a080 	ldr	x0, [x4, #3904]
  4006d4:	f9400000 	ldr	x0, [x0]
  4006d8:	aa0003e2 	mov	x2, x0
  4006dc:	b94017e1 	ldr	w1, [sp, #20]
  4006e0:	f9400fe0 	ldr	x0, [sp, #24]
  4006e4:	b0000044 	adrp	x4, 0x409000
  4006e8:	f9477483 	ldr	x3, [x4, #3816]
  4006ec:	d63f0060 	blr	x3
  4006f0:	f9400fe0 	ldr	x0, [sp, #24]
  4006f4:	39400000 	ldrb	w0, [x0]
  4006f8:	7100001f 	cmp	w0, #0x0
  4006fc:	54000061 	b.ne	0x400708  // b.any
  400700:	12800000 	mov	w0, #0xffffffff            	// #-1
  400704:	14000002 	b	0x40070c
  400708:	52800000 	mov	w0, #0x0                   	// #0
  40070c:	a8c27bfd 	ldp	x29, x30, [sp], #32
  400710:	d65f03c0 	ret
  400714:	a9bd7bfd 	stp	x29, x30, [sp, #-48]!
  400718:	910003fd 	mov	x29, sp
  40071c:	b9001fe0 	str	w0, [sp, #28]
  400720:	f9000be1 	str	x1, [sp, #16]
  400724:	b90023ff 	str	wzr, [sp, #32]
  400728:	14000010 	b	0x400768
  40072c:	b98023e0 	ldrsw	x0, [sp, #32]
  400730:	d37df000 	lsl	x0, x0, #3
  400734:	f9400be1 	ldr	x1, [sp, #16]
  400738:	8b000020 	add	x0, x1, x0
  40073c:	f9400000 	ldr	x0, [x0]
  400740:	aa0003e2 	mov	x2, x0
  400744:	b94023e1 	ldr	w1, [sp, #32]
  400748:	f0000020 	adrp	x0, 0x407000
  40074c:	912f8000 	add	x0, x0, #0xbe0
  400750:	b0000043 	adrp	x3, 0x409000
  400754:	f9476463 	ldr	x3, [x3, #3784]
  400758:	d63f0060 	blr	x3
  40075c:	b94023e0 	ldr	w0, [sp, #32]
  400760:	11000400 	add	w0, w0, #0x1
  400764:	b90023e0 	str	w0, [sp, #32]
  400768:	b94023e1 	ldr	w1, [sp, #32]
  40076c:	b9401fe0 	ldr	w0, [sp, #28]
  400770:	6b00003f 	cmp	w1, w0
  400774:	54fffdcb 	b.lt	0x40072c  // b.tstop
  400778:	f0000020 	adrp	x0, 0x407000
  40077c:	912fe000 	add	x0, x0, #0xbf8
  400780:	b0000043 	adrp	x3, 0x409000
  400784:	f9477061 	ldr	x1, [x3, #3808]
  400788:	d63f0020 	blr	x1
  40078c:	f90017e0 	str	x0, [sp, #40]
  400790:	f94017e0 	ldr	x0, [sp, #40]
  400794:	f100001f 	cmp	x0, #0x0
  400798:	54000100 	b.eq	0x4007b8  // b.none
  40079c:	f94017e1 	ldr	x1, [sp, #40]
  4007a0:	f0000020 	adrp	x0, 0x407000
  4007a4:	91302000 	add	x0, x0, #0xc08
  4007a8:	b0000043 	adrp	x3, 0x409000
  4007ac:	f9476462 	ldr	x2, [x3, #3784]
  4007b0:	d63f0040 	blr	x2
  4007b4:	1400000f 	b	0x4007f0
  4007b8:	f0000020 	adrp	x0, 0x407000
  4007bc:	91308000 	add	x0, x0, #0xc20
  4007c0:	b0000043 	adrp	x3, 0x409000
  4007c4:	f9477861 	ldr	x1, [x3, #3824]
  4007c8:	d63f0020 	blr	x1
  4007cc:	14000009 	b	0x4007f0
  4007d0:	b94027e0 	ldr	w0, [sp, #36]
  4007d4:	7100081f 	cmp	w0, #0x2
  4007d8:	540000cd 	b.le	0x4007f0
  4007dc:	b94027e0 	ldr	w0, [sp, #36]
  4007e0:	b0000043 	adrp	x3, 0x409000
  4007e4:	f947ec61 	ldr	x1, [x3, #4056]
  4007e8:	d63f0020 	blr	x1
  4007ec:	1400000b 	b	0x400818
  4007f0:	52800041 	mov	w1, #0x2                   	// #2
  4007f4:	f0000020 	adrp	x0, 0x407000
  4007f8:	9130e000 	add	x0, x0, #0xc38
  4007fc:	b0000043 	adrp	x3, 0x409000
  400800:	f947e462 	ldr	x2, [x3, #4040]
  400804:	d63f0040 	blr	x2
  400808:	b90027e0 	str	w0, [sp, #36]
  40080c:	b94027e0 	ldr	w0, [sp, #36]
  400810:	7100001f 	cmp	w0, #0x0
  400814:	54fffdea 	b.ge	0x4007d0  // b.tcont
  400818:	14000038 	b	0x4008f8
  40081c:	90000060 	adrp	x0, 0x40c000
  400820:	91286000 	add	x0, x0, #0xa18
  400824:	39400000 	ldrb	w0, [x0]
  400828:	71018c1f 	cmp	w0, #0x63
  40082c:	54000501 	b.ne	0x4008cc  // b.any
  400830:	90000060 	adrp	x0, 0x40c000
  400834:	91286000 	add	x0, x0, #0xa18
  400838:	39400400 	ldrb	w0, [x0, #1]
  40083c:	7101901f 	cmp	w0, #0x64
  400840:	54000461 	b.ne	0x4008cc  // b.any
  400844:	90000060 	adrp	x0, 0x40c000
  400848:	91286000 	add	x0, x0, #0xa18
  40084c:	39400800 	ldrb	w0, [x0, #2]
  400850:	7100801f 	cmp	w0, #0x20
  400854:	540003c1 	b.ne	0x4008cc  // b.any
  400858:	90000060 	adrp	x0, 0x40c000
  40085c:	91286000 	add	x0, x0, #0xa18
  400860:	b0000043 	adrp	x3, 0x409000
  400864:	f947e061 	ldr	x1, [x3, #4032]
  400868:	d63f0020 	blr	x1
  40086c:	d1000400 	sub	x0, x0, #0x1
  400870:	90000061 	adrp	x1, 0x40c000
  400874:	91286021 	add	x1, x1, #0xa18
  400878:	3820683f 	strb	wzr, [x1, x0]
  40087c:	90000060 	adrp	x0, 0x40c000
  400880:	91286c00 	add	x0, x0, #0xa1b
  400884:	b0000043 	adrp	x3, 0x409000
  400888:	f9479861 	ldr	x1, [x3, #3888]
  40088c:	d63f0020 	blr	x1
  400890:	7100001f 	cmp	w0, #0x0
  400894:	5400032a 	b.ge	0x4008f8  // b.tcont
  400898:	b0000043 	adrp	x3, 0x409000
  40089c:	f947d060 	ldr	x0, [x3, #4000]
  4008a0:	f9400003 	ldr	x3, [x0]
  4008a4:	90000060 	adrp	x0, 0x40c000
  4008a8:	91286c00 	add	x0, x0, #0xa1b
  4008ac:	aa0003e2 	mov	x2, x0
  4008b0:	f0000020 	adrp	x0, 0x407000
  4008b4:	91310001 	add	x1, x0, #0xc40
  4008b8:	aa0303e0 	mov	x0, x3
  4008bc:	b0000043 	adrp	x3, 0x409000
  4008c0:	f9479463 	ldr	x3, [x3, #3880]
  4008c4:	d63f0060 	blr	x3
  4008c8:	1400000c 	b	0x4008f8
  4008cc:	94000014 	bl	0x40091c
  4008d0:	7100001f 	cmp	w0, #0x0
  4008d4:	540000a1 	b.ne	0x4008e8  // b.any
  4008d8:	90000060 	adrp	x0, 0x40c000
  4008dc:	91286000 	add	x0, x0, #0xa18
  4008e0:	94000157 	bl	0x400e3c
  4008e4:	97fffe95 	bl	0x400338
  4008e8:	d2800000 	mov	x0, #0x0                   	// #0
  4008ec:	b0000043 	adrp	x3, 0x409000
  4008f0:	f947a461 	ldr	x1, [x3, #3912]
  4008f4:	d63f0020 	blr	x1
  4008f8:	52800c81 	mov	w1, #0x64                  	// #100
  4008fc:	90000060 	adrp	x0, 0x40c000
  400900:	91286000 	add	x0, x0, #0xa18
  400904:	97ffff5c 	bl	0x400674
  400908:	7100001f 	cmp	w0, #0x0
  40090c:	54fff88a 	b.ge	0x40081c  // b.tcont
  400910:	52800000 	mov	w0, #0x0                   	// #0
  400914:	a8c37bfd 	ldp	x29, x30, [sp], #48
  400918:	d65f03c0 	ret
  40091c:	a9be7bfd 	stp	x29, x30, [sp, #-32]!
  400920:	910003fd 	mov	x29, sp
  400924:	b0000040 	adrp	x0, 0x409000
  400928:	f947ac00 	ldr	x0, [x0, #3928]
  40092c:	d63f0000 	blr	x0
  400930:	b9001fe0 	str	w0, [sp, #28]
  400934:	b9401fe0 	ldr	w0, [sp, #28]
  400938:	3100041f 	cmn	w0, #0x1
  40093c:	54000081 	b.ne	0x40094c  // b.any
  400940:	f0000020 	adrp	x0, 0x407000
  400944:	91314000 	add	x0, x0, #0xc50
  400948:	97fffe6b 	bl	0x4002f4
  40094c:	b9401fe0 	ldr	w0, [sp, #28]
  400950:	a8c27bfd 	ldp	x29, x30, [sp], #32
  400954:	d65f03c0 	ret
  400958:	a9be7bfd 	stp	x29, x30, [sp, #-32]!
  40095c:	910003fd 	mov	x29, sp
  400960:	d2801500 	mov	x0, #0xa8                  	// #168
  400964:	97fffe3a 	bl	0x40024c
  400968:	f9000fe0 	str	x0, [sp, #24]
  40096c:	d2801502 	mov	x2, #0xa8                  	// #168
  400970:	52800001 	mov	w1, #0x0                   	// #0
  400974:	f9400fe0 	ldr	x0, [sp, #24]
  400978:	b0000043 	adrp	x3, 0x409000
  40097c:	f947bc63 	ldr	x3, [x3, #3960]
  400980:	d63f0060 	blr	x3
  400984:	f9400fe0 	ldr	x0, [sp, #24]
  400988:	52800021 	mov	w1, #0x1                   	// #1
  40098c:	b9000001 	str	w1, [x0]
  400990:	f9400fe0 	ldr	x0, [sp, #24]
  400994:	a8c27bfd 	ldp	x29, x30, [sp], #32
  400998:	d65f03c0 	ret
  40099c:	a9bc7bfd 	stp	x29, x30, [sp, #-64]!
  4009a0:	910003fd 	mov	x29, sp
  4009a4:	f90017e0 	str	x0, [sp, #40]
  4009a8:	f90013e1 	str	x1, [sp, #32]
  4009ac:	f9000fe2 	str	x2, [sp, #24]
  4009b0:	b90017e3 	str	w3, [sp, #20]
  4009b4:	b90013e4 	str	w4, [sp, #16]
  4009b8:	d2800500 	mov	x0, #0x28                  	// #40
  4009bc:	97fffe24 	bl	0x40024c
  4009c0:	f9001fe0 	str	x0, [sp, #56]
  4009c4:	d2800502 	mov	x2, #0x28                  	// #40
  4009c8:	52800001 	mov	w1, #0x0                   	// #0
  4009cc:	f9401fe0 	ldr	x0, [sp, #56]
  4009d0:	b0000043 	adrp	x3, 0x409000
  4009d4:	f947bc63 	ldr	x3, [x3, #3960]
  4009d8:	d63f0060 	blr	x3
  4009dc:	f9401fe0 	ldr	x0, [sp, #56]
  4009e0:	52800041 	mov	w1, #0x2                   	// #2
  4009e4:	b9000001 	str	w1, [x0]
  4009e8:	f9401fe0 	ldr	x0, [sp, #56]
  4009ec:	f94017e1 	ldr	x1, [sp, #40]
  4009f0:	f9000401 	str	x1, [x0, #8]
  4009f4:	f9401fe0 	ldr	x0, [sp, #56]
  4009f8:	f94013e1 	ldr	x1, [sp, #32]
  4009fc:	f9000801 	str	x1, [x0, #16]
  400a00:	f9401fe0 	ldr	x0, [sp, #56]
  400a04:	f9400fe1 	ldr	x1, [sp, #24]
  400a08:	f9000c01 	str	x1, [x0, #24]
  400a0c:	f9401fe0 	ldr	x0, [sp, #56]
  400a10:	b94017e1 	ldr	w1, [sp, #20]
  400a14:	b9002001 	str	w1, [x0, #32]
  400a18:	f9401fe0 	ldr	x0, [sp, #56]
  400a1c:	b94013e1 	ldr	w1, [sp, #16]
  400a20:	b9002401 	str	w1, [x0, #36]
  400a24:	f9401fe0 	ldr	x0, [sp, #56]
  400a28:	a8c47bfd 	ldp	x29, x30, [sp], #64
  400a2c:	d65f03c0 	ret
  400a30:	a9bd7bfd 	stp	x29, x30, [sp, #-48]!
  400a34:	910003fd 	mov	x29, sp
  400a38:	f9000fe0 	str	x0, [sp, #24]
  400a3c:	f9000be1 	str	x1, [sp, #16]
  400a40:	d2800300 	mov	x0, #0x18                  	// #24
  400a44:	97fffe02 	bl	0x40024c
  400a48:	f90017e0 	str	x0, [sp, #40]
  400a4c:	d2800302 	mov	x2, #0x18                  	// #24
  400a50:	52800001 	mov	w1, #0x0                   	// #0
  400a54:	f94017e0 	ldr	x0, [sp, #40]
  400a58:	b0000043 	adrp	x3, 0x409000
  400a5c:	f947bc63 	ldr	x3, [x3, #3960]
  400a60:	d63f0060 	blr	x3
  400a64:	f94017e0 	ldr	x0, [sp, #40]
  400a68:	52800061 	mov	w1, #0x3                   	// #3
  400a6c:	b9000001 	str	w1, [x0]
  400a70:	f94017e0 	ldr	x0, [sp, #40]
  400a74:	f9400fe1 	ldr	x1, [sp, #24]
  400a78:	f9000401 	str	x1, [x0, #8]
  400a7c:	f94017e0 	ldr	x0, [sp, #40]
  400a80:	f9400be1 	ldr	x1, [sp, #16]
  400a84:	f9000801 	str	x1, [x0, #16]
  400a88:	f94017e0 	ldr	x0, [sp, #40]
  400a8c:	a8c37bfd 	ldp	x29, x30, [sp], #48
  400a90:	d65f03c0 	ret
  400a94:	a9bd7bfd 	stp	x29, x30, [sp, #-48]!
  400a98:	910003fd 	mov	x29, sp
  400a9c:	f9000fe0 	str	x0, [sp, #24]
  400aa0:	f9000be1 	str	x1, [sp, #16]
  400aa4:	d2800300 	mov	x0, #0x18                  	// #24
  400aa8:	97fffde9 	bl	0x40024c
  400aac:	f90017e0 	str	x0, [sp, #40]
  400ab0:	d2800302 	mov	x2, #0x18                  	// #24
  400ab4:	52800001 	mov	w1, #0x0                   	// #0
  400ab8:	f94017e0 	ldr	x0, [sp, #40]
  400abc:	b0000043 	adrp	x3, 0x409000
  400ac0:	f947bc63 	ldr	x3, [x3, #3960]
  400ac4:	d63f0060 	blr	x3
  400ac8:	f94017e0 	ldr	x0, [sp, #40]
  400acc:	52800081 	mov	w1, #0x4                   	// #4
  400ad0:	b9000001 	str	w1, [x0]
  400ad4:	f94017e0 	ldr	x0, [sp, #40]
  400ad8:	f9400fe1 	ldr	x1, [sp, #24]
  400adc:	f9000401 	str	x1, [x0, #8]
  400ae0:	f94017e0 	ldr	x0, [sp, #40]
  400ae4:	f9400be1 	ldr	x1, [sp, #16]
  400ae8:	f9000801 	str	x1, [x0, #16]
  400aec:	f94017e0 	ldr	x0, [sp, #40]
  400af0:	a8c37bfd 	ldp	x29, x30, [sp], #48
  400af4:	d65f03c0 	ret
  400af8:	a9bd7bfd 	stp	x29, x30, [sp, #-48]!
  400afc:	910003fd 	mov	x29, sp
  400b00:	f9000fe0 	str	x0, [sp, #24]
  400b04:	d2800200 	mov	x0, #0x10                  	// #16
  400b08:	97fffdd1 	bl	0x40024c
  400b0c:	f90017e0 	str	x0, [sp, #40]
  400b10:	d2800202 	mov	x2, #0x10                  	// #16
  400b14:	52800001 	mov	w1, #0x0                   	// #0
  400b18:	f94017e0 	ldr	x0, [sp, #40]
  400b1c:	b0000043 	adrp	x3, 0x409000
  400b20:	f947bc63 	ldr	x3, [x3, #3960]
  400b24:	d63f0060 	blr	x3
  400b28:	f94017e0 	ldr	x0, [sp, #40]
  400b2c:	528000a1 	mov	w1, #0x5                   	// #5
  400b30:	b9000001 	str	w1, [x0]
  400b34:	f94017e0 	ldr	x0, [sp, #40]
  400b38:	f9400fe1 	ldr	x1, [sp, #24]
  400b3c:	f9000401 	str	x1, [x0, #8]
  400b40:	f94017e0 	ldr	x0, [sp, #40]
  400b44:	a8c37bfd 	ldp	x29, x30, [sp], #48
  400b48:	d65f03c0 	ret
  400b4c:	a9bc7bfd 	stp	x29, x30, [sp, #-64]!
  400b50:	910003fd 	mov	x29, sp
  400b54:	f90017e0 	str	x0, [sp, #40]
  400b58:	f90013e1 	str	x1, [sp, #32]
  400b5c:	f9000fe2 	str	x2, [sp, #24]
  400b60:	f9000be3 	str	x3, [sp, #16]
  400b64:	f94017e0 	ldr	x0, [sp, #40]
  400b68:	f9400000 	ldr	x0, [x0]
  400b6c:	f9001fe0 	str	x0, [sp, #56]
  400b70:	14000004 	b	0x400b80
  400b74:	f9401fe0 	ldr	x0, [sp, #56]
  400b78:	91000400 	add	x0, x0, #0x1
  400b7c:	f9001fe0 	str	x0, [sp, #56]
  400b80:	f9401fe1 	ldr	x1, [sp, #56]
  400b84:	f94013e0 	ldr	x0, [sp, #32]
  400b88:	eb00003f 	cmp	x1, x0
  400b8c:	54000162 	b.cs	0x400bb8  // b.hs, b.nlast
  400b90:	f9401fe0 	ldr	x0, [sp, #56]
  400b94:	39400000 	ldrb	w0, [x0]
  400b98:	2a0003e1 	mov	w1, w0
  400b9c:	d0000040 	adrp	x0, 0x40a000
  400ba0:	91002000 	add	x0, x0, #0x8
  400ba4:	b0000042 	adrp	x2, 0x409000
  400ba8:	f947e842 	ldr	x2, [x2, #4048]
  400bac:	d63f0040 	blr	x2
  400bb0:	f100001f 	cmp	x0, #0x0
  400bb4:	54fffe01 	b.ne	0x400b74  // b.any
  400bb8:	f9400fe0 	ldr	x0, [sp, #24]
  400bbc:	f100001f 	cmp	x0, #0x0
  400bc0:	54000080 	b.eq	0x400bd0  // b.none
  400bc4:	f9400fe0 	ldr	x0, [sp, #24]
  400bc8:	f9401fe1 	ldr	x1, [sp, #56]
  400bcc:	f9000001 	str	x1, [x0]
  400bd0:	f9401fe0 	ldr	x0, [sp, #56]
  400bd4:	39400000 	ldrb	w0, [x0]
  400bd8:	b90037e0 	str	w0, [sp, #52]
  400bdc:	f9401fe0 	ldr	x0, [sp, #56]
  400be0:	39400000 	ldrb	w0, [x0]
  400be4:	7101f01f 	cmp	w0, #0x7c
  400be8:	54000260 	b.eq	0x400c34  // b.none
  400bec:	7101f01f 	cmp	w0, #0x7c
  400bf0:	5400044c 	b.gt	0x400c78
  400bf4:	7100f81f 	cmp	w0, #0x3e
  400bf8:	54000260 	b.eq	0x400c44  // b.none
  400bfc:	7100f81f 	cmp	w0, #0x3e
  400c00:	540003cc 	b.gt	0x400c78
  400c04:	7100f01f 	cmp	w0, #0x3c
  400c08:	5400038c 	b.gt	0x400c78
  400c0c:	7100ec1f 	cmp	w0, #0x3b
  400c10:	5400012a 	b.ge	0x400c34  // b.tcont
  400c14:	7100a41f 	cmp	w0, #0x29
  400c18:	5400030c 	b.gt	0x400c78
  400c1c:	7100a01f 	cmp	w0, #0x28
  400c20:	540000aa 	b.ge	0x400c34  // b.tcont
  400c24:	7100001f 	cmp	w0, #0x0
  400c28:	54000660 	b.eq	0x400cf4  // b.none
  400c2c:	7100981f 	cmp	w0, #0x26
  400c30:	54000241 	b.ne	0x400c78  // b.any
  400c34:	f9401fe0 	ldr	x0, [sp, #56]
  400c38:	91000400 	add	x0, x0, #0x1
  400c3c:	f9001fe0 	str	x0, [sp, #56]
  400c40:	14000032 	b	0x400d08
  400c44:	f9401fe0 	ldr	x0, [sp, #56]
  400c48:	91000400 	add	x0, x0, #0x1
  400c4c:	f9001fe0 	str	x0, [sp, #56]
  400c50:	f9401fe0 	ldr	x0, [sp, #56]
  400c54:	39400000 	ldrb	w0, [x0]
  400c58:	7100f81f 	cmp	w0, #0x3e
  400c5c:	54000501 	b.ne	0x400cfc  // b.any
  400c60:	52800560 	mov	w0, #0x2b                  	// #43
  400c64:	b90037e0 	str	w0, [sp, #52]
  400c68:	f9401fe0 	ldr	x0, [sp, #56]
  400c6c:	91000400 	add	x0, x0, #0x1
  400c70:	f9001fe0 	str	x0, [sp, #56]
  400c74:	14000022 	b	0x400cfc
  400c78:	52800c20 	mov	w0, #0x61                  	// #97
  400c7c:	b90037e0 	str	w0, [sp, #52]
  400c80:	14000004 	b	0x400c90
  400c84:	f9401fe0 	ldr	x0, [sp, #56]
  400c88:	91000400 	add	x0, x0, #0x1
  400c8c:	f9001fe0 	str	x0, [sp, #56]
  400c90:	f9401fe1 	ldr	x1, [sp, #56]
  400c94:	f94013e0 	ldr	x0, [sp, #32]
  400c98:	eb00003f 	cmp	x1, x0
  400c9c:	54000342 	b.cs	0x400d04  // b.hs, b.nlast
  400ca0:	f9401fe0 	ldr	x0, [sp, #56]
  400ca4:	39400000 	ldrb	w0, [x0]
  400ca8:	2a0003e1 	mov	w1, w0
  400cac:	d0000040 	adrp	x0, 0x40a000
  400cb0:	91002000 	add	x0, x0, #0x8
  400cb4:	b0000042 	adrp	x2, 0x409000
  400cb8:	f947e842 	ldr	x2, [x2, #4048]
  400cbc:	d63f0040 	blr	x2
  400cc0:	f100001f 	cmp	x0, #0x0
  400cc4:	54000201 	b.ne	0x400d04  // b.any
  400cc8:	f9401fe0 	ldr	x0, [sp, #56]
  400ccc:	39400000 	ldrb	w0, [x0]
  400cd0:	2a0003e1 	mov	w1, w0
  400cd4:	d0000040 	adrp	x0, 0x40a000
  400cd8:	91004000 	add	x0, x0, #0x10
  400cdc:	b0000042 	adrp	x2, 0x409000
  400ce0:	f947e842 	ldr	x2, [x2, #4048]
  400ce4:	d63f0040 	blr	x2
  400ce8:	f100001f 	cmp	x0, #0x0
  400cec:	54fffcc0 	b.eq	0x400c84  // b.none
  400cf0:	14000005 	b	0x400d04
  400cf4:	d503201f 	nop
  400cf8:	14000004 	b	0x400d08
  400cfc:	d503201f 	nop
  400d00:	14000002 	b	0x400d08
  400d04:	d503201f 	nop
  400d08:	f9400be0 	ldr	x0, [sp, #16]
  400d0c:	f100001f 	cmp	x0, #0x0
  400d10:	54000100 	b.eq	0x400d30  // b.none
  400d14:	f9400be0 	ldr	x0, [sp, #16]
  400d18:	f9401fe1 	ldr	x1, [sp, #56]
  400d1c:	f9000001 	str	x1, [x0]
  400d20:	14000004 	b	0x400d30
  400d24:	f9401fe0 	ldr	x0, [sp, #56]
  400d28:	91000400 	add	x0, x0, #0x1
  400d2c:	f9001fe0 	str	x0, [sp, #56]
  400d30:	f9401fe1 	ldr	x1, [sp, #56]
  400d34:	f94013e0 	ldr	x0, [sp, #32]
  400d38:	eb00003f 	cmp	x1, x0
  400d3c:	54000162 	b.cs	0x400d68  // b.hs, b.nlast
  400d40:	f9401fe0 	ldr	x0, [sp, #56]
  400d44:	39400000 	ldrb	w0, [x0]
  400d48:	2a0003e1 	mov	w1, w0
  400d4c:	d0000040 	adrp	x0, 0x40a000
  400d50:	91002000 	add	x0, x0, #0x8
  400d54:	b0000042 	adrp	x2, 0x409000
  400d58:	f947e842 	ldr	x2, [x2, #4048]
  400d5c:	d63f0040 	blr	x2
  400d60:	f100001f 	cmp	x0, #0x0
  400d64:	54fffe01 	b.ne	0x400d24  // b.any
  400d68:	f94017e0 	ldr	x0, [sp, #40]
  400d6c:	f9401fe1 	ldr	x1, [sp, #56]
  400d70:	f9000001 	str	x1, [x0]
  400d74:	b94037e0 	ldr	w0, [sp, #52]
  400d78:	a8c47bfd 	ldp	x29, x30, [sp], #64
  400d7c:	d65f03c0 	ret
  400d80:	a9bc7bfd 	stp	x29, x30, [sp, #-64]!
  400d84:	910003fd 	mov	x29, sp
  400d88:	f90017e0 	str	x0, [sp, #40]
  400d8c:	f90013e1 	str	x1, [sp, #32]
  400d90:	f9000fe2 	str	x2, [sp, #24]
  400d94:	f94017e0 	ldr	x0, [sp, #40]
  400d98:	f9400000 	ldr	x0, [x0]
  400d9c:	f9001fe0 	str	x0, [sp, #56]
  400da0:	14000004 	b	0x400db0
  400da4:	f9401fe0 	ldr	x0, [sp, #56]
  400da8:	91000400 	add	x0, x0, #0x1
  400dac:	f9001fe0 	str	x0, [sp, #56]
  400db0:	f9401fe1 	ldr	x1, [sp, #56]
  400db4:	f94013e0 	ldr	x0, [sp, #32]
  400db8:	eb00003f 	cmp	x1, x0
  400dbc:	54000162 	b.cs	0x400de8  // b.hs, b.nlast
  400dc0:	f9401fe0 	ldr	x0, [sp, #56]
  400dc4:	39400000 	ldrb	w0, [x0]
  400dc8:	2a0003e1 	mov	w1, w0
  400dcc:	d0000040 	adrp	x0, 0x40a000
  400dd0:	91002000 	add	x0, x0, #0x8
  400dd4:	b0000042 	adrp	x2, 0x409000
  400dd8:	f947e842 	ldr	x2, [x2, #4048]
  400ddc:	d63f0040 	blr	x2
  400de0:	f100001f 	cmp	x0, #0x0
  400de4:	54fffe01 	b.ne	0x400da4  // b.any
  400de8:	f94017e0 	ldr	x0, [sp, #40]
  400dec:	f9401fe1 	ldr	x1, [sp, #56]
  400df0:	f9000001 	str	x1, [x0]
  400df4:	f9401fe0 	ldr	x0, [sp, #56]
  400df8:	39400000 	ldrb	w0, [x0]
  400dfc:	7100001f 	cmp	w0, #0x0
  400e00:	54000180 	b.eq	0x400e30  // b.none
  400e04:	f9401fe0 	ldr	x0, [sp, #56]
  400e08:	39400000 	ldrb	w0, [x0]
  400e0c:	2a0003e1 	mov	w1, w0
  400e10:	f9400fe0 	ldr	x0, [sp, #24]
  400e14:	b0000042 	adrp	x2, 0x409000
  400e18:	f947e842 	ldr	x2, [x2, #4048]
  400e1c:	d63f0040 	blr	x2
  400e20:	f100001f 	cmp	x0, #0x0
  400e24:	54000060 	b.eq	0x400e30  // b.none
  400e28:	52800020 	mov	w0, #0x1                   	// #1
  400e2c:	14000002 	b	0x400e34
  400e30:	52800000 	mov	w0, #0x0                   	// #0
  400e34:	a8c47bfd 	ldp	x29, x30, [sp], #64
  400e38:	d65f03c0 	ret
  400e3c:	a9bc7bfd 	stp	x29, x30, [sp, #-64]!
  400e40:	910003fd 	mov	x29, sp
  400e44:	f9000bf3 	str	x19, [sp, #16]
  400e48:	f90017e0 	str	x0, [sp, #40]
  400e4c:	f94017f3 	ldr	x19, [sp, #40]
  400e50:	f94017e0 	ldr	x0, [sp, #40]
  400e54:	b0000043 	adrp	x3, 0x409000
  400e58:	f947e061 	ldr	x1, [x3, #4032]
  400e5c:	d63f0020 	blr	x1
  400e60:	8b000260 	add	x0, x19, x0
  400e64:	f9001be0 	str	x0, [sp, #48]
  400e68:	9100a3e0 	add	x0, sp, #0x28
  400e6c:	f9401be1 	ldr	x1, [sp, #48]
  400e70:	94000020 	bl	0x400ef0
  400e74:	f9001fe0 	str	x0, [sp, #56]
  400e78:	9100a3e3 	add	x3, sp, #0x28
  400e7c:	f0000020 	adrp	x0, 0x407000
  400e80:	91316002 	add	x2, x0, #0xc58
  400e84:	f9401be1 	ldr	x1, [sp, #48]
  400e88:	aa0303e0 	mov	x0, x3
  400e8c:	97ffffbd 	bl	0x400d80
  400e90:	f94017e0 	ldr	x0, [sp, #40]
  400e94:	f9401be1 	ldr	x1, [sp, #48]
  400e98:	eb00003f 	cmp	x1, x0
  400e9c:	540001e0 	b.eq	0x400ed8  // b.none
  400ea0:	b0000043 	adrp	x3, 0x409000
  400ea4:	f947d060 	ldr	x0, [x3, #4000]
  400ea8:	f9400003 	ldr	x3, [x0]
  400eac:	f94017e0 	ldr	x0, [sp, #40]
  400eb0:	aa0003e2 	mov	x2, x0
  400eb4:	f0000020 	adrp	x0, 0x407000
  400eb8:	91318001 	add	x1, x0, #0xc60
  400ebc:	aa0303e0 	mov	x0, x3
  400ec0:	b0000043 	adrp	x3, 0x409000
  400ec4:	f9479463 	ldr	x3, [x3, #3880]
  400ec8:	d63f0060 	blr	x3
  400ecc:	f0000020 	adrp	x0, 0x407000
  400ed0:	9131c000 	add	x0, x0, #0xc70
  400ed4:	97fffd08 	bl	0x4002f4
  400ed8:	f9401fe0 	ldr	x0, [sp, #56]
  400edc:	9400014a 	bl	0x401404
  400ee0:	f9401fe0 	ldr	x0, [sp, #56]
  400ee4:	f9400bf3 	ldr	x19, [sp, #16]
  400ee8:	a8c47bfd 	ldp	x29, x30, [sp], #64
  400eec:	d65f03c0 	ret
  400ef0:	a9bd7bfd 	stp	x29, x30, [sp, #-48]!
  400ef4:	910003fd 	mov	x29, sp
  400ef8:	f9000fe0 	str	x0, [sp, #24]
  400efc:	f9000be1 	str	x1, [sp, #16]
  400f00:	f9400be1 	ldr	x1, [sp, #16]
  400f04:	f9400fe0 	ldr	x0, [sp, #24]
  400f08:	94000028 	bl	0x400fa8
  400f0c:	f90017e0 	str	x0, [sp, #40]
  400f10:	14000009 	b	0x400f34
  400f14:	d2800003 	mov	x3, #0x0                   	// #0
  400f18:	d2800002 	mov	x2, #0x0                   	// #0
  400f1c:	f9400be1 	ldr	x1, [sp, #16]
  400f20:	f9400fe0 	ldr	x0, [sp, #24]
  400f24:	97ffff0a 	bl	0x400b4c
  400f28:	f94017e0 	ldr	x0, [sp, #40]
  400f2c:	97fffef3 	bl	0x400af8
  400f30:	f90017e0 	str	x0, [sp, #40]
  400f34:	f0000020 	adrp	x0, 0x407000
  400f38:	9131e002 	add	x2, x0, #0xc78
  400f3c:	f9400be1 	ldr	x1, [sp, #16]
  400f40:	f9400fe0 	ldr	x0, [sp, #24]
  400f44:	97ffff8f 	bl	0x400d80
  400f48:	7100001f 	cmp	w0, #0x0
  400f4c:	54fffe41 	b.ne	0x400f14  // b.any
  400f50:	f0000020 	adrp	x0, 0x407000
  400f54:	91320002 	add	x2, x0, #0xc80
  400f58:	f9400be1 	ldr	x1, [sp, #16]
  400f5c:	f9400fe0 	ldr	x0, [sp, #24]
  400f60:	97ffff88 	bl	0x400d80
  400f64:	7100001f 	cmp	w0, #0x0
  400f68:	540001a0 	b.eq	0x400f9c  // b.none
  400f6c:	d2800003 	mov	x3, #0x0                   	// #0
  400f70:	d2800002 	mov	x2, #0x0                   	// #0
  400f74:	f9400be1 	ldr	x1, [sp, #16]
  400f78:	f9400fe0 	ldr	x0, [sp, #24]
  400f7c:	97fffef4 	bl	0x400b4c
  400f80:	f9400be1 	ldr	x1, [sp, #16]
  400f84:	f9400fe0 	ldr	x0, [sp, #24]
  400f88:	97ffffda 	bl	0x400ef0
  400f8c:	aa0003e1 	mov	x1, x0
  400f90:	f94017e0 	ldr	x0, [sp, #40]
  400f94:	97fffec0 	bl	0x400a94
  400f98:	f90017e0 	str	x0, [sp, #40]
  400f9c:	f94017e0 	ldr	x0, [sp, #40]
  400fa0:	a8c37bfd 	ldp	x29, x30, [sp], #48
  400fa4:	d65f03c0 	ret
  400fa8:	a9bd7bfd 	stp	x29, x30, [sp, #-48]!
  400fac:	910003fd 	mov	x29, sp
  400fb0:	f9000fe0 	str	x0, [sp, #24]
  400fb4:	f9000be1 	str	x1, [sp, #16]
  400fb8:	f9400be1 	ldr	x1, [sp, #16]
  400fbc:	f9400fe0 	ldr	x0, [sp, #24]
  400fc0:	940000a3 	bl	0x40124c
  400fc4:	f90017e0 	str	x0, [sp, #40]
  400fc8:	f0000020 	adrp	x0, 0x407000
  400fcc:	91322002 	add	x2, x0, #0xc88
  400fd0:	f9400be1 	ldr	x1, [sp, #16]
  400fd4:	f9400fe0 	ldr	x0, [sp, #24]
  400fd8:	97ffff6a 	bl	0x400d80
  400fdc:	7100001f 	cmp	w0, #0x0
  400fe0:	540001a0 	b.eq	0x401014  // b.none
  400fe4:	d2800003 	mov	x3, #0x0                   	// #0
  400fe8:	d2800002 	mov	x2, #0x0                   	// #0
  400fec:	f9400be1 	ldr	x1, [sp, #16]
  400ff0:	f9400fe0 	ldr	x0, [sp, #24]
  400ff4:	97fffed6 	bl	0x400b4c
  400ff8:	f9400be1 	ldr	x1, [sp, #16]
  400ffc:	f9400fe0 	ldr	x0, [sp, #24]
  401000:	97ffffea 	bl	0x400fa8
  401004:	aa0003e1 	mov	x1, x0
  401008:	f94017e0 	ldr	x0, [sp, #40]
  40100c:	97fffe89 	bl	0x400a30
  401010:	f90017e0 	str	x0, [sp, #40]
  401014:	f94017e0 	ldr	x0, [sp, #40]
  401018:	a8c37bfd 	ldp	x29, x30, [sp], #48
  40101c:	d65f03c0 	ret
  401020:	a9bb7bfd 	stp	x29, x30, [sp, #-80]!
  401024:	910003fd 	mov	x29, sp
  401028:	f90017e0 	str	x0, [sp, #40]
  40102c:	f90013e1 	str	x1, [sp, #32]
  401030:	f9000fe2 	str	x2, [sp, #24]
  401034:	90000040 	adrp	x0, 0x409000
  401038:	f9476800 	ldr	x0, [x0, #3792]
  40103c:	f9400001 	ldr	x1, [x0]
  401040:	f90027e1 	str	x1, [sp, #72]
  401044:	d2800001 	mov	x1, #0x0                   	// #0
  401048:	1400003d 	b	0x40113c
  40104c:	d2800003 	mov	x3, #0x0                   	// #0
  401050:	d2800002 	mov	x2, #0x0                   	// #0
  401054:	f9400fe1 	ldr	x1, [sp, #24]
  401058:	f94013e0 	ldr	x0, [sp, #32]
  40105c:	97fffebc 	bl	0x400b4c
  401060:	b90037e0 	str	w0, [sp, #52]
  401064:	910103e1 	add	x1, sp, #0x40
  401068:	9100e3e0 	add	x0, sp, #0x38
  40106c:	aa0103e3 	mov	x3, x1
  401070:	aa0003e2 	mov	x2, x0
  401074:	f9400fe1 	ldr	x1, [sp, #24]
  401078:	f94013e0 	ldr	x0, [sp, #32]
  40107c:	97fffeb4 	bl	0x400b4c
  401080:	7101841f 	cmp	w0, #0x61
  401084:	54000080 	b.eq	0x401094  // b.none
  401088:	d0000020 	adrp	x0, 0x407000
  40108c:	91324000 	add	x0, x0, #0xc90
  401090:	97fffc99 	bl	0x4002f4
  401094:	b94037e0 	ldr	w0, [sp, #52]
  401098:	7100f81f 	cmp	w0, #0x3e
  40109c:	54000280 	b.eq	0x4010ec  // b.none
  4010a0:	b94037e0 	ldr	w0, [sp, #52]
  4010a4:	7100f81f 	cmp	w0, #0x3e
  4010a8:	540004ac 	b.gt	0x40113c
  4010ac:	b94037e0 	ldr	w0, [sp, #52]
  4010b0:	7100ac1f 	cmp	w0, #0x2b
  4010b4:	54000300 	b.eq	0x401114  // b.none
  4010b8:	b94037e0 	ldr	w0, [sp, #52]
  4010bc:	7100f01f 	cmp	w0, #0x3c
  4010c0:	540003e1 	b.ne	0x40113c  // b.any
  4010c4:	f9401fe0 	ldr	x0, [sp, #56]
  4010c8:	f94023e1 	ldr	x1, [sp, #64]
  4010cc:	52800004 	mov	w4, #0x0                   	// #0
  4010d0:	52800003 	mov	w3, #0x0                   	// #0
  4010d4:	aa0103e2 	mov	x2, x1
  4010d8:	aa0003e1 	mov	x1, x0
  4010dc:	f94017e0 	ldr	x0, [sp, #40]
  4010e0:	97fffe2f 	bl	0x40099c
  4010e4:	f90017e0 	str	x0, [sp, #40]
  4010e8:	14000015 	b	0x40113c
  4010ec:	f9401fe0 	ldr	x0, [sp, #56]
  4010f0:	f94023e1 	ldr	x1, [sp, #64]
  4010f4:	52800024 	mov	w4, #0x1                   	// #1
  4010f8:	52800823 	mov	w3, #0x41                  	// #65
  4010fc:	aa0103e2 	mov	x2, x1
  401100:	aa0003e1 	mov	x1, x0
  401104:	f94017e0 	ldr	x0, [sp, #40]
  401108:	97fffe25 	bl	0x40099c
  40110c:	f90017e0 	str	x0, [sp, #40]
  401110:	1400000b 	b	0x40113c
  401114:	f9401fe0 	ldr	x0, [sp, #56]
  401118:	f94023e1 	ldr	x1, [sp, #64]
  40111c:	52800024 	mov	w4, #0x1                   	// #1
  401120:	52800823 	mov	w3, #0x41                  	// #65
  401124:	aa0103e2 	mov	x2, x1
  401128:	aa0003e1 	mov	x1, x0
  40112c:	f94017e0 	ldr	x0, [sp, #40]
  401130:	97fffe1b 	bl	0x40099c
  401134:	f90017e0 	str	x0, [sp, #40]
  401138:	d503201f 	nop
  40113c:	d0000020 	adrp	x0, 0x407000
  401140:	9132c002 	add	x2, x0, #0xcb0
  401144:	f9400fe1 	ldr	x1, [sp, #24]
  401148:	f94013e0 	ldr	x0, [sp, #32]
  40114c:	97ffff0d 	bl	0x400d80
  401150:	7100001f 	cmp	w0, #0x0
  401154:	54fff7c1 	b.ne	0x40104c  // b.any
  401158:	f94017e0 	ldr	x0, [sp, #40]
  40115c:	aa0003e1 	mov	x1, x0
  401160:	90000040 	adrp	x0, 0x409000
  401164:	f9476800 	ldr	x0, [x0, #3792]
  401168:	f94027e2 	ldr	x2, [sp, #72]
  40116c:	f9400003 	ldr	x3, [x0]
  401170:	eb030042 	subs	x2, x2, x3
  401174:	d2800003 	mov	x3, #0x0                   	// #0
  401178:	54000080 	b.eq	0x401188  // b.none
  40117c:	90000040 	adrp	x0, 0x409000
  401180:	f9478800 	ldr	x0, [x0, #3856]
  401184:	d63f0000 	blr	x0
  401188:	aa0103e0 	mov	x0, x1
  40118c:	a8c57bfd 	ldp	x29, x30, [sp], #80
  401190:	d65f03c0 	ret
  401194:	a9bd7bfd 	stp	x29, x30, [sp, #-48]!
  401198:	910003fd 	mov	x29, sp
  40119c:	f9000fe0 	str	x0, [sp, #24]
  4011a0:	f9000be1 	str	x1, [sp, #16]
  4011a4:	d0000020 	adrp	x0, 0x407000
  4011a8:	9132e002 	add	x2, x0, #0xcb8
  4011ac:	f9400be1 	ldr	x1, [sp, #16]
  4011b0:	f9400fe0 	ldr	x0, [sp, #24]
  4011b4:	97fffef3 	bl	0x400d80
  4011b8:	7100001f 	cmp	w0, #0x0
  4011bc:	54000081 	b.ne	0x4011cc  // b.any
  4011c0:	d0000020 	adrp	x0, 0x407000
  4011c4:	91330000 	add	x0, x0, #0xcc0
  4011c8:	97fffc4b 	bl	0x4002f4
  4011cc:	d2800003 	mov	x3, #0x0                   	// #0
  4011d0:	d2800002 	mov	x2, #0x0                   	// #0
  4011d4:	f9400be1 	ldr	x1, [sp, #16]
  4011d8:	f9400fe0 	ldr	x0, [sp, #24]
  4011dc:	97fffe5c 	bl	0x400b4c
  4011e0:	f9400be1 	ldr	x1, [sp, #16]
  4011e4:	f9400fe0 	ldr	x0, [sp, #24]
  4011e8:	97ffff42 	bl	0x400ef0
  4011ec:	f90017e0 	str	x0, [sp, #40]
  4011f0:	d0000020 	adrp	x0, 0x407000
  4011f4:	91334002 	add	x2, x0, #0xcd0
  4011f8:	f9400be1 	ldr	x1, [sp, #16]
  4011fc:	f9400fe0 	ldr	x0, [sp, #24]
  401200:	97fffee0 	bl	0x400d80
  401204:	7100001f 	cmp	w0, #0x0
  401208:	54000081 	b.ne	0x401218  // b.any
  40120c:	d0000020 	adrp	x0, 0x407000
  401210:	91336000 	add	x0, x0, #0xcd8
  401214:	97fffc38 	bl	0x4002f4
  401218:	d2800003 	mov	x3, #0x0                   	// #0
  40121c:	d2800002 	mov	x2, #0x0                   	// #0
  401220:	f9400be1 	ldr	x1, [sp, #16]
  401224:	f9400fe0 	ldr	x0, [sp, #24]
  401228:	97fffe49 	bl	0x400b4c
  40122c:	f9400be2 	ldr	x2, [sp, #16]
  401230:	f9400fe1 	ldr	x1, [sp, #24]
  401234:	f94017e0 	ldr	x0, [sp, #40]
  401238:	97ffff7a 	bl	0x401020
  40123c:	f90017e0 	str	x0, [sp, #40]
  401240:	f94017e0 	ldr	x0, [sp, #40]
  401244:	a8c37bfd 	ldp	x29, x30, [sp], #48
  401248:	d65f03c0 	ret
  40124c:	a9bb7bfd 	stp	x29, x30, [sp, #-80]!
  401250:	910003fd 	mov	x29, sp
  401254:	f9000fe0 	str	x0, [sp, #24]
  401258:	f9000be1 	str	x1, [sp, #16]
  40125c:	90000040 	adrp	x0, 0x409000
  401260:	f9476800 	ldr	x0, [x0, #3792]
  401264:	f9400001 	ldr	x1, [x0]
  401268:	f90027e1 	str	x1, [sp, #72]
  40126c:	d2800001 	mov	x1, #0x0                   	// #0
  401270:	d0000020 	adrp	x0, 0x407000
  401274:	9132e002 	add	x2, x0, #0xcb8
  401278:	f9400be1 	ldr	x1, [sp, #16]
  40127c:	f9400fe0 	ldr	x0, [sp, #24]
  401280:	97fffec0 	bl	0x400d80
  401284:	7100001f 	cmp	w0, #0x0
  401288:	540000a0 	b.eq	0x40129c  // b.none
  40128c:	f9400be1 	ldr	x1, [sp, #16]
  401290:	f9400fe0 	ldr	x0, [sp, #24]
  401294:	97ffffc0 	bl	0x401194
  401298:	1400004d 	b	0x4013cc
  40129c:	97fffdaf 	bl	0x400958
  4012a0:	f9001fe0 	str	x0, [sp, #56]
  4012a4:	f9401fe0 	ldr	x0, [sp, #56]
  4012a8:	f90023e0 	str	x0, [sp, #64]
  4012ac:	b90023ff 	str	wzr, [sp, #32]
  4012b0:	f9400be2 	ldr	x2, [sp, #16]
  4012b4:	f9400fe1 	ldr	x1, [sp, #24]
  4012b8:	f9401fe0 	ldr	x0, [sp, #56]
  4012bc:	97ffff59 	bl	0x401020
  4012c0:	f9001fe0 	str	x0, [sp, #56]
  4012c4:	1400002d 	b	0x401378
  4012c8:	9100c3e1 	add	x1, sp, #0x30
  4012cc:	9100a3e0 	add	x0, sp, #0x28
  4012d0:	aa0103e3 	mov	x3, x1
  4012d4:	aa0003e2 	mov	x2, x0
  4012d8:	f9400be1 	ldr	x1, [sp, #16]
  4012dc:	f9400fe0 	ldr	x0, [sp, #24]
  4012e0:	97fffe1b 	bl	0x400b4c
  4012e4:	b90027e0 	str	w0, [sp, #36]
  4012e8:	b94027e0 	ldr	w0, [sp, #36]
  4012ec:	7100001f 	cmp	w0, #0x0
  4012f0:	54000540 	b.eq	0x401398  // b.none
  4012f4:	b94027e0 	ldr	w0, [sp, #36]
  4012f8:	7101841f 	cmp	w0, #0x61
  4012fc:	54000080 	b.eq	0x40130c  // b.none
  401300:	d0000020 	adrp	x0, 0x407000
  401304:	9131c000 	add	x0, x0, #0xc70
  401308:	97fffbfb 	bl	0x4002f4
  40130c:	f94017e1 	ldr	x1, [sp, #40]
  401310:	f94023e2 	ldr	x2, [sp, #64]
  401314:	b98023e0 	ldrsw	x0, [sp, #32]
  401318:	d37df000 	lsl	x0, x0, #3
  40131c:	8b000040 	add	x0, x2, x0
  401320:	f9000401 	str	x1, [x0, #8]
  401324:	f9401be1 	ldr	x1, [sp, #48]
  401328:	f94023e2 	ldr	x2, [sp, #64]
  40132c:	b98023e0 	ldrsw	x0, [sp, #32]
  401330:	91002800 	add	x0, x0, #0xa
  401334:	d37df000 	lsl	x0, x0, #3
  401338:	8b000040 	add	x0, x2, x0
  40133c:	f9000401 	str	x1, [x0, #8]
  401340:	b94023e0 	ldr	w0, [sp, #32]
  401344:	11000400 	add	w0, w0, #0x1
  401348:	b90023e0 	str	w0, [sp, #32]
  40134c:	b94023e0 	ldr	w0, [sp, #32]
  401350:	7100241f 	cmp	w0, #0x9
  401354:	5400008d 	b.le	0x401364
  401358:	d0000020 	adrp	x0, 0x407000
  40135c:	9133c000 	add	x0, x0, #0xcf0
  401360:	97fffbe5 	bl	0x4002f4
  401364:	f9400be2 	ldr	x2, [sp, #16]
  401368:	f9400fe1 	ldr	x1, [sp, #24]
  40136c:	f9401fe0 	ldr	x0, [sp, #56]
  401370:	97ffff2c 	bl	0x401020
  401374:	f9001fe0 	str	x0, [sp, #56]
  401378:	d0000020 	adrp	x0, 0x407000
  40137c:	91340002 	add	x2, x0, #0xd00
  401380:	f9400be1 	ldr	x1, [sp, #16]
  401384:	f9400fe0 	ldr	x0, [sp, #24]
  401388:	97fffe7e 	bl	0x400d80
  40138c:	7100001f 	cmp	w0, #0x0
  401390:	54fff9c0 	b.eq	0x4012c8  // b.none
  401394:	14000002 	b	0x40139c
  401398:	d503201f 	nop
  40139c:	f94023e1 	ldr	x1, [sp, #64]
  4013a0:	b98023e0 	ldrsw	x0, [sp, #32]
  4013a4:	d37df000 	lsl	x0, x0, #3
  4013a8:	8b000020 	add	x0, x1, x0
  4013ac:	f900041f 	str	xzr, [x0, #8]
  4013b0:	f94023e1 	ldr	x1, [sp, #64]
  4013b4:	b98023e0 	ldrsw	x0, [sp, #32]
  4013b8:	91002800 	add	x0, x0, #0xa
  4013bc:	d37df000 	lsl	x0, x0, #3
  4013c0:	8b000020 	add	x0, x1, x0
  4013c4:	f900041f 	str	xzr, [x0, #8]
  4013c8:	f9401fe0 	ldr	x0, [sp, #56]
  4013cc:	aa0003e1 	mov	x1, x0
  4013d0:	90000040 	adrp	x0, 0x409000
  4013d4:	f9476800 	ldr	x0, [x0, #3792]
  4013d8:	f94027e2 	ldr	x2, [sp, #72]
  4013dc:	f9400003 	ldr	x3, [x0]
  4013e0:	eb030042 	subs	x2, x2, x3
  4013e4:	d2800003 	mov	x3, #0x0                   	// #0
  4013e8:	54000080 	b.eq	0x4013f8  // b.none
  4013ec:	90000040 	adrp	x0, 0x409000
  4013f0:	f9478800 	ldr	x0, [x0, #3856]
  4013f4:	d63f0000 	blr	x0
  4013f8:	aa0103e0 	mov	x0, x1
  4013fc:	a8c57bfd 	ldp	x29, x30, [sp], #80
  401400:	d65f03c0 	ret
  401404:	a9bb7bfd 	stp	x29, x30, [sp, #-80]!
  401408:	910003fd 	mov	x29, sp
  40140c:	f9000fe0 	str	x0, [sp, #24]
  401410:	f9400fe0 	ldr	x0, [sp, #24]
  401414:	f100001f 	cmp	x0, #0x0
  401418:	54000061 	b.ne	0x401424  // b.any
  40141c:	d2800000 	mov	x0, #0x0                   	// #0
  401420:	1400004c 	b	0x401550
  401424:	f9400fe0 	ldr	x0, [sp, #24]
  401428:	b9400000 	ldr	w0, [x0]
  40142c:	7100141f 	cmp	w0, #0x5
  401430:	54000820 	b.eq	0x401534  // b.none
  401434:	7100141f 	cmp	w0, #0x5
  401438:	540008ac 	b.gt	0x40154c
  40143c:	7100101f 	cmp	w0, #0x4
  401440:	54000680 	b.eq	0x401510  // b.none
  401444:	7100101f 	cmp	w0, #0x4
  401448:	5400082c 	b.gt	0x40154c
  40144c:	71000c1f 	cmp	w0, #0x3
  401450:	540004e0 	b.eq	0x4014ec  // b.none
  401454:	71000c1f 	cmp	w0, #0x3
  401458:	540007ac 	b.gt	0x40154c
  40145c:	7100041f 	cmp	w0, #0x1
  401460:	54000080 	b.eq	0x401470  // b.none
  401464:	7100081f 	cmp	w0, #0x2
  401468:	54000300 	b.eq	0x4014c8  // b.none
  40146c:	14000038 	b	0x40154c
  401470:	f9400fe0 	ldr	x0, [sp, #24]
  401474:	f90027e0 	str	x0, [sp, #72]
  401478:	b90027ff 	str	wzr, [sp, #36]
  40147c:	1400000b 	b	0x4014a8
  401480:	f94027e1 	ldr	x1, [sp, #72]
  401484:	b98027e0 	ldrsw	x0, [sp, #36]
  401488:	91002800 	add	x0, x0, #0xa
  40148c:	d37df000 	lsl	x0, x0, #3
  401490:	8b000020 	add	x0, x1, x0
  401494:	f9400400 	ldr	x0, [x0, #8]
  401498:	3900001f 	strb	wzr, [x0]
  40149c:	b94027e0 	ldr	w0, [sp, #36]
  4014a0:	11000400 	add	w0, w0, #0x1
  4014a4:	b90027e0 	str	w0, [sp, #36]
  4014a8:	f94027e1 	ldr	x1, [sp, #72]
  4014ac:	b98027e0 	ldrsw	x0, [sp, #36]
  4014b0:	d37df000 	lsl	x0, x0, #3
  4014b4:	8b000020 	add	x0, x1, x0
  4014b8:	f9400400 	ldr	x0, [x0, #8]
  4014bc:	f100001f 	cmp	x0, #0x0
  4014c0:	54fffe01 	b.ne	0x401480  // b.any
  4014c4:	14000022 	b	0x40154c
  4014c8:	f9400fe0 	ldr	x0, [sp, #24]
  4014cc:	f90023e0 	str	x0, [sp, #64]
  4014d0:	f94023e0 	ldr	x0, [sp, #64]
  4014d4:	f9400400 	ldr	x0, [x0, #8]
  4014d8:	97ffffcb 	bl	0x401404
  4014dc:	f94023e0 	ldr	x0, [sp, #64]
  4014e0:	f9400c00 	ldr	x0, [x0, #24]
  4014e4:	3900001f 	strb	wzr, [x0]
  4014e8:	14000019 	b	0x40154c
  4014ec:	f9400fe0 	ldr	x0, [sp, #24]
  4014f0:	f9001fe0 	str	x0, [sp, #56]
  4014f4:	f9401fe0 	ldr	x0, [sp, #56]
  4014f8:	f9400400 	ldr	x0, [x0, #8]
  4014fc:	97ffffc2 	bl	0x401404
  401500:	f9401fe0 	ldr	x0, [sp, #56]
  401504:	f9400800 	ldr	x0, [x0, #16]
  401508:	97ffffbf 	bl	0x401404
  40150c:	14000010 	b	0x40154c
  401510:	f9400fe0 	ldr	x0, [sp, #24]
  401514:	f9001be0 	str	x0, [sp, #48]
  401518:	f9401be0 	ldr	x0, [sp, #48]
  40151c:	f9400400 	ldr	x0, [x0, #8]
  401520:	97ffffb9 	bl	0x401404
  401524:	f9401be0 	ldr	x0, [sp, #48]
  401528:	f9400800 	ldr	x0, [x0, #16]
  40152c:	97ffffb6 	bl	0x401404
  401530:	14000007 	b	0x40154c
  401534:	f9400fe0 	ldr	x0, [sp, #24]
  401538:	f90017e0 	str	x0, [sp, #40]
  40153c:	f94017e0 	ldr	x0, [sp, #40]
  401540:	f9400400 	ldr	x0, [x0, #8]
  401544:	97ffffb0 	bl	0x401404
  401548:	d503201f 	nop
  40154c:	f9400fe0 	ldr	x0, [sp, #24]
  401550:	a8c57bfd 	ldp	x29, x30, [sp], #80
  401554:	d65f03c0 	ret
  401558:	d65f03c0 	ret
  40155c:	d65f03c0 	ret
  401560:	a9a853f3 	stp	x19, x20, [sp, #-384]!
  401564:	d2802602 	mov	x2, #0x130                 	// #304
  401568:	aa0003f4 	mov	x20, x0
  40156c:	910143e3 	add	x3, sp, #0x50
  401570:	aa0103f3 	mov	x19, x1
  401574:	aa0303e0 	mov	x0, x3
  401578:	52800001 	mov	w1, #0x0                   	// #0
  40157c:	a9017bf5 	stp	x21, x30, [sp, #16]
  401580:	940009f0 	bl	0x403d40
  401584:	aa0003e3 	mov	x3, x0
  401588:	90000040 	adrp	x0, 0x409000
  40158c:	d2800001 	mov	x1, #0x0                   	// #0
  401590:	f9478400 	ldr	x0, [x0, #3848]
  401594:	f9000014 	str	x20, [x0]
  401598:	f8617a80 	ldr	x0, [x20, x1, lsl #3]
  40159c:	91000421 	add	x1, x1, #0x1
  4015a0:	b5ffffc0 	cbnz	x0, 0x401598
  4015a4:	8b010e80 	add	x0, x20, x1, lsl #3
  4015a8:	90000074 	adrp	x20, 0x40d000
  4015ac:	91128281 	add	x1, x20, #0x4a0
  4015b0:	f9000420 	str	x0, [x1, #8]
  4015b4:	f9400015 	ldr	x21, [x0]
  4015b8:	b5000315 	cbnz	x21, 0x401618
  4015bc:	90000060 	adrp	x0, 0x40d000
  4015c0:	f9406be1 	ldr	x1, [sp, #208]
  4015c4:	f9024c01 	str	x1, [x0, #1176]
  4015c8:	f940abe0 	ldr	x0, [sp, #336]
  4015cc:	b4000060 	cbz	x0, 0x4015d8
  4015d0:	90000061 	adrp	x1, 0x40d000
  4015d4:	f9024820 	str	x0, [x1, #1168]
  4015d8:	91128280 	add	x0, x20, #0x4a0
  4015dc:	f94043e1 	ldr	x1, [sp, #128]
  4015e0:	f9001801 	str	x1, [x0, #48]
  4015e4:	b50000d3 	cbnz	x19, 0x4015fc
  4015e8:	f940a7e1 	ldr	x1, [sp, #328]
  4015ec:	d0000033 	adrp	x19, 0x407000
  4015f0:	9135be73 	add	x19, x19, #0xd6f
  4015f4:	f100003f 	cmp	x1, #0x0
  4015f8:	9a810273 	csel	x19, x19, x1, eq  // eq = none
  4015fc:	90000041 	adrp	x1, 0x409000
  401600:	90000040 	adrp	x0, 0x409000
  401604:	f947f021 	ldr	x1, [x1, #4064]
  401608:	f947a800 	ldr	x0, [x0, #3920]
  40160c:	f9000033 	str	x19, [x1]
  401610:	f9000013 	str	x19, [x0]
  401614:	14000009 	b	0x401638
  401618:	f10096bf 	cmp	x21, #0x25
  40161c:	54000068 	b.hi	0x401628  // b.pmore
  401620:	f9400401 	ldr	x1, [x0, #8]
  401624:	f8357861 	str	x1, [x3, x21, lsl #3]
  401628:	91004000 	add	x0, x0, #0x10
  40162c:	17ffffe2 	b	0x4015b4
  401630:	7100bc3f 	cmp	w1, #0x2f
  401634:	54fffee0 	b.eq	0x401610  // b.none
  401638:	39400261 	ldrb	w1, [x19]
  40163c:	91000673 	add	x19, x19, #0x1
  401640:	35ffff81 	cbnz	w1, 0x401630
  401644:	aa0303e0 	mov	x0, x3
  401648:	94000c06 	bl	0x404660
  40164c:	f9408fe0 	ldr	x0, [sp, #280]
  401650:	9400005e 	bl	0x4017c8
  401654:	a94a83e1 	ldp	x1, x0, [sp, #168]
  401658:	eb00003f 	cmp	x1, x0
  40165c:	540000c1 	b.ne	0x401674  // b.any
  401660:	a94b83e1 	ldp	x1, x0, [sp, #184]
  401664:	eb00003f 	cmp	x1, x0
  401668:	54000061 	b.ne	0x401674  // b.any
  40166c:	f94087e0 	ldr	x0, [sp, #264]
  401670:	b4000480 	cbz	x0, 0x401700
  401674:	52800020 	mov	w0, #0x1                   	// #1
  401678:	a903ffff 	stp	xzr, xzr, [sp, #56]
  40167c:	9100e3e5 	add	x5, sp, #0x38
  401680:	b90043e0 	str	w0, [sp, #64]
  401684:	52800040 	mov	w0, #0x2                   	// #2
  401688:	f90027ff 	str	xzr, [sp, #72]
  40168c:	9100a3e2 	add	x2, sp, #0x28
  401690:	d2800928 	mov	x8, #0x49                  	// #73
  401694:	d2800061 	mov	x1, #0x3                   	// #3
  401698:	d2800003 	mov	x3, #0x0                   	// #0
  40169c:	d2800104 	mov	x4, #0x8                   	// #8
  4016a0:	a902ffff 	stp	xzr, xzr, [sp, #40]
  4016a4:	b9004be0 	str	w0, [sp, #72]
  4016a8:	aa0503e0 	mov	x0, x5
  4016ac:	d4000001 	svc	#0x0
  4016b0:	37f80160 	tbnz	w0, #31, 0x4016dc
  4016b4:	d0000021 	adrp	x1, 0x407000
  4016b8:	91341421 	add	x1, x1, #0xd05
  4016bc:	8b1500a0 	add	x0, x5, x21
  4016c0:	79400c00 	ldrh	w0, [x0, #6]
  4016c4:	36280120 	tbz	w0, #5, 0x4016e8
  4016c8:	d2800708 	mov	x8, #0x38                  	// #56
  4016cc:	92800c60 	mov	x0, #0xffffffffffffff9c    	// #-100
  4016d0:	320f83e2 	mov	w2, #0x20002               	// #131074
  4016d4:	d4000001 	svc	#0x0
  4016d8:	b6f80080 	tbz	x0, #63, 0x4016e8
  4016dc:	d2800000 	mov	x0, #0x0                   	// #0
  4016e0:	3900001f 	strb	wzr, [x0]
  4016e4:	d4207d00 	brk	#0x3e8
  4016e8:	910022b5 	add	x21, x21, #0x8
  4016ec:	f10062bf 	cmp	x21, #0x18
  4016f0:	54fffe61 	b.ne	0x4016bc  // b.any
  4016f4:	91128280 	add	x0, x20, #0x4a0
  4016f8:	52800021 	mov	w1, #0x1                   	// #1
  4016fc:	39000801 	strb	w1, [x0, #2]
  401700:	a9417bf5 	ldp	x21, x30, [sp, #16]
  401704:	a8d853f3 	ldp	x19, x20, [sp], #384
  401708:	d65f03c0 	ret
  40170c:	a9be53f3 	stp	x19, x20, [sp, #-32]!
  401710:	90000053 	adrp	x19, 0x409000
  401714:	90000054 	adrp	x20, 0x409000
  401718:	f9000bfe 	str	x30, [sp, #16]
  40171c:	97fffa81 	bl	0x400120
  401720:	f947de73 	ldr	x19, [x19, #4024]
  401724:	f947c694 	ldr	x20, [x20, #3976]
  401728:	eb14027f 	cmp	x19, x20
  40172c:	54000083 	b.cc	0x40173c  // b.lo, b.ul, b.last
  401730:	f9400bfe 	ldr	x30, [sp, #16]
  401734:	a8c253f3 	ldp	x19, x20, [sp], #32
  401738:	d65f03c0 	ret
  40173c:	f8408660 	ldr	x0, [x19], #8
  401740:	d63f0000 	blr	x0
  401744:	17fffff9 	b	0x401728
  401748:	a9bd53f3 	stp	x19, x20, [sp, #-48]!
  40174c:	2a0103f3 	mov	w19, w1
  401750:	aa0203f4 	mov	x20, x2
  401754:	a9015bf5 	stp	x21, x22, [sp, #16]
  401758:	8b21cc56 	add	x22, x2, w1, sxtw #3
  40175c:	aa0003f5 	mov	x21, x0
  401760:	910022d6 	add	x22, x22, #0x8
  401764:	f90013fe 	str	x30, [sp, #32]
  401768:	97ffffe9 	bl	0x40170c
  40176c:	aa1603e2 	mov	x2, x22
  401770:	aa1403e1 	mov	x1, x20
  401774:	2a1303e0 	mov	w0, w19
  401778:	d63f02a0 	blr	x21
  40177c:	97fffa6d 	bl	0x400130
  401780:	a9be53f3 	stp	x19, x20, [sp, #-32]!
  401784:	2a0103f4 	mov	w20, w1
  401788:	aa0203f3 	mov	x19, x2
  40178c:	a9017bf5 	stp	x21, x30, [sp, #16]
  401790:	aa0003f5 	mov	x21, x0
  401794:	8b21cc40 	add	x0, x2, w1, sxtw #3
  401798:	f9400041 	ldr	x1, [x2]
  40179c:	91002000 	add	x0, x0, #0x8
  4017a0:	97ffff70 	bl	0x401560
  4017a4:	aa1303e2 	mov	x2, x19
  4017a8:	2a1403e1 	mov	w1, w20
  4017ac:	aa1503e0 	mov	x0, x21
  4017b0:	90000003 	adrp	x3, 0x401000
  4017b4:	911d2063 	add	x3, x3, #0x748
  4017b8:	a9417bf5 	ldp	x21, x30, [sp, #16]
  4017bc:	aa0303f0 	mov	x16, x3
  4017c0:	a8c253f3 	ldp	x19, x20, [sp], #32
  4017c4:	d61f0200 	br	x16
  4017c8:	a9bf7bf3 	stp	x19, x30, [sp, #-16]!
  4017cc:	90000053 	adrp	x19, 0x409000
  4017d0:	b4000180 	cbz	x0, 0x401800
  4017d4:	aa0003e1 	mov	x1, x0
  4017d8:	d2800102 	mov	x2, #0x8                   	// #8
  4017dc:	f9476a60 	ldr	x0, [x19, #3792]
  4017e0:	940008f4 	bl	0x403bb0
  4017e4:	f9476a73 	ldr	x19, [x19, #3792]
  4017e8:	d53bd040 	mrs	x0, tpidr_el0
  4017ec:	3900067f 	strb	wzr, [x19, #1]
  4017f0:	f9400261 	ldr	x1, [x19]
  4017f4:	f81f0001 	stur	x1, [x0, #-16]
  4017f8:	a8c17bf3 	ldp	x19, x30, [sp], #16
  4017fc:	d65f03c0 	ret
  401800:	f9476a60 	ldr	x0, [x19, #3792]
  401804:	d289cda1 	mov	x1, #0x4e6d                	// #20077
  401808:	f2a838c1 	movk	x1, #0x41c6, lsl #16
  40180c:	9b017c01 	mul	x1, x0, x1
  401810:	f9000001 	str	x1, [x0]
  401814:	17fffff4 	b	0x4017e4
  401818:	d2800000 	mov	x0, #0x0                   	// #0
  40181c:	3900001f 	strb	wzr, [x0]
  401820:	d4207d00 	brk	#0x3e8
  401824:	a9be53f3 	stp	x19, x20, [sp, #-32]!
  401828:	528007a1 	mov	w1, #0x3d                  	// #61
  40182c:	a9017bf5 	stp	x21, x30, [sp, #16]
  401830:	aa0003f5 	mov	x21, x0
  401834:	940009bf 	bl	0x403f30
  401838:	eb150014 	subs	x20, x0, x21
  40183c:	540000a1 	b.ne	0x401850  // b.any
  401840:	d2800000 	mov	x0, #0x0                   	// #0
  401844:	a9417bf5 	ldp	x21, x30, [sp, #16]
  401848:	a8c253f3 	ldp	x19, x20, [sp], #32
  40184c:	d65f03c0 	ret
  401850:	39400000 	ldrb	w0, [x0]
  401854:	35ffff60 	cbnz	w0, 0x401840
  401858:	90000040 	adrp	x0, 0x409000
  40185c:	f9478400 	ldr	x0, [x0, #3848]
  401860:	f9400013 	ldr	x19, [x0]
  401864:	b4fffef3 	cbz	x19, 0x401840
  401868:	f9400261 	ldr	x1, [x19]
  40186c:	b4fffea1 	cbz	x1, 0x401840
  401870:	aa1403e2 	mov	x2, x20
  401874:	aa1503e0 	mov	x0, x21
  401878:	94000a00 	bl	0x404078
  40187c:	35000100 	cbnz	w0, 0x40189c
  401880:	f9400261 	ldr	x1, [x19]
  401884:	38746820 	ldrb	w0, [x1, x20]
  401888:	7100f41f 	cmp	w0, #0x3d
  40188c:	54000081 	b.ne	0x40189c  // b.any
  401890:	91000680 	add	x0, x20, #0x1
  401894:	8b000020 	add	x0, x1, x0
  401898:	17ffffeb 	b	0x401844
  40189c:	91002273 	add	x19, x19, #0x8
  4018a0:	17fffff2 	b	0x401868
  4018a4:	d65f03c0 	ret
  4018a8:	a9be53f3 	stp	x19, x20, [sp, #-32]!
  4018ac:	90000053 	adrp	x19, 0x409000
  4018b0:	90000054 	adrp	x20, 0x409000
  4018b4:	f9478273 	ldr	x19, [x19, #3840]
  4018b8:	f9000bfe 	str	x30, [sp, #16]
  4018bc:	f947ba94 	ldr	x20, [x20, #3952]
  4018c0:	eb14027f 	cmp	x19, x20
  4018c4:	54000088 	b.hi	0x4018d4  // b.pmore
  4018c8:	f9400bfe 	ldr	x30, [sp, #16]
  4018cc:	a8c253f3 	ldp	x19, x20, [sp], #32
  4018d0:	140018a8 	b	0x407b70
  4018d4:	f85f8e60 	ldr	x0, [x19, #-8]!
  4018d8:	d63f0000 	blr	x0
  4018dc:	17fffff9 	b	0x4018c0
  4018e0:	a9bc7bf3 	stp	x19, x30, [sp, #-64]!
  4018e4:	2a0103f3 	mov	w19, w1
  4018e8:	f9001fe2 	str	x2, [sp, #56]
  4018ec:	373000b3 	tbnz	w19, #6, 0x401900
  4018f0:	12122021 	and	w1, w1, #0x7fc000
  4018f4:	120a6021 	and	w1, w1, #0xffc07fff
  4018f8:	7150103f 	cmp	w1, #0x404, lsl #12
  4018fc:	540003c1 	b.ne	0x401974  // b.any
  401900:	910103e1 	add	x1, sp, #0x40
  401904:	b9403be4 	ldr	w4, [sp, #56]
  401908:	a90107e1 	stp	x1, x1, [sp, #16]
  40190c:	9100c3e1 	add	x1, sp, #0x30
  401910:	f90013e1 	str	x1, [sp, #32]
  401914:	128000e1 	mov	w1, #0xfffffff8            	// #-8
  401918:	b9002be1 	str	w1, [sp, #40]
  40191c:	b9002fff 	str	wzr, [sp, #44]
  401920:	320f0263 	orr	w3, w19, #0x20000
  401924:	aa0003e2 	mov	x2, x0
  401928:	2a0403e4 	mov	w4, w4
  40192c:	d2800006 	mov	x6, #0x0                   	// #0
  401930:	93407c63 	sxtw	x3, w3
  401934:	d2800005 	mov	x5, #0x0                   	// #0
  401938:	92800c61 	mov	x1, #0xffffffffffffff9c    	// #-100
  40193c:	d2800700 	mov	x0, #0x38                  	// #56
  401940:	94000a56 	bl	0x404298
  401944:	93407c03 	sxtw	x3, w0
  401948:	37f800e0 	tbnz	w0, #31, 0x401964
  40194c:	369800d3 	tbz	w19, #19, 0x401964
  401950:	d2800328 	mov	x8, #0x19                  	// #25
  401954:	aa0303e0 	mov	x0, x3
  401958:	d2800041 	mov	x1, #0x2                   	// #2
  40195c:	d2800022 	mov	x2, #0x1                   	// #1
  401960:	d4000001 	svc	#0x0
  401964:	aa0303e0 	mov	x0, x3
  401968:	94000006 	bl	0x401980
  40196c:	a8c47bf3 	ldp	x19, x30, [sp], #64
  401970:	d65f03c0 	ret
  401974:	52800004 	mov	w4, #0x0                   	// #0
  401978:	17ffffea 	b	0x401920
  40197c:	d503201f 	nop
  401980:	a9bf7bf3 	stp	x19, x30, [sp, #-16]!
  401984:	b140041f 	cmn	x0, #0x1, lsl #12
  401988:	aa0003f3 	mov	x19, x0
  40198c:	54000068 	b.hi	0x401998  // b.pmore
  401990:	a8c17bf3 	ldp	x19, x30, [sp], #16
  401994:	d65f03c0 	ret
  401998:	94000b9d 	bl	0x40480c
  40199c:	aa0003e1 	mov	x1, x0
  4019a0:	4b1303f3 	neg	w19, w19
  4019a4:	92800000 	mov	x0, #0xffffffffffffffff    	// #-1
  4019a8:	b9000033 	str	w19, [x1]
  4019ac:	17fffff9 	b	0x401990
  4019b0:	90000042 	adrp	x2, 0x409000
  4019b4:	f9478442 	ldr	x2, [x2, #3848]
  4019b8:	f9400042 	ldr	x2, [x2]
  4019bc:	14000001 	b	0x4019c0
  4019c0:	d2801ba8 	mov	x8, #0xdd                  	// #221
  4019c4:	f81f0ffe 	str	x30, [sp, #-16]!
  4019c8:	d4000001 	svc	#0x0
  4019cc:	97ffffed 	bl	0x401980
  4019d0:	f84107fe 	ldr	x30, [sp], #16
  4019d4:	d65f03c0 	ret
  4019d8:	d65f03c0 	ret
  4019dc:	d65f03c0 	ret
  4019e0:	a9b453f3 	stp	x19, x20, [sp, #-192]!
  4019e4:	12800000 	mov	w0, #0xffffffff            	// #-1
  4019e8:	a9015bf5 	stp	x21, x22, [sp, #16]
  4019ec:	a90263f7 	stp	x23, x24, [sp, #32]
  4019f0:	910103f7 	add	x23, sp, #0x40
  4019f4:	a9037bf9 	stp	x25, x30, [sp, #48]
  4019f8:	97fffff8 	bl	0x4019d8
  4019fc:	aa1703e0 	mov	x0, x23
  401a00:	94000067 	bl	0x401b9c
  401a04:	90000060 	adrp	x0, 0x40d000
  401a08:	91128000 	add	x0, x0, #0x4a0
  401a0c:	39400c16 	ldrb	w22, [x0, #3]
  401a10:	13001ed6 	sxtb	w22, w22
  401a14:	710002df 	cmp	w22, #0x0
  401a18:	5400022d 	b.le	0x401a5c
  401a1c:	90000054 	adrp	x20, 0x409000
  401a20:	91392294 	add	x20, x20, #0xe48
  401a24:	12800000 	mov	w0, #0xffffffff            	// #-1
  401a28:	d2800013 	mov	x19, #0x0                   	// #0
  401a2c:	97ffffeb 	bl	0x4019d8
  401a30:	94000a1b 	bl	0x40429c
  401a34:	f8737a80 	ldr	x0, [x20, x19, lsl #3]
  401a38:	f9400000 	ldr	x0, [x0]
  401a3c:	b4000040 	cbz	x0, 0x401a44
  401a40:	940009b7 	bl	0x40411c
  401a44:	91000673 	add	x19, x19, #0x1
  401a48:	f1002e7f 	cmp	x19, #0xb
  401a4c:	54ffff41 	b.ne	0x401a34  // b.any
  401a50:	12800000 	mov	w0, #0xffffffff            	// #-1
  401a54:	97ffffe1 	bl	0x4019d8
  401a58:	97ffffe1 	bl	0x4019dc
  401a5c:	d53bd040 	mrs	x0, tpidr_el0
  401a60:	d1032019 	sub	x25, x0, #0xc8
  401a64:	f8548015 	ldur	x21, [x0, #-184]
  401a68:	94000bd0 	bl	0x4049a8
  401a6c:	2a0003f3 	mov	w19, w0
  401a70:	94000b67 	bl	0x40480c
  401a74:	710002df 	cmp	w22, #0x0
  401a78:	b9400018 	ldr	w24, [x0]
  401a7c:	aa0003f4 	mov	x20, x0
  401a80:	540003ad 	b.le	0x401af4
  401a84:	35000133 	cbnz	w19, 0x401aa8
  401a88:	12800000 	mov	w0, #0xffffffff            	// #-1
  401a8c:	eb1902bf 	cmp	x21, x25
  401a90:	540004c1 	b.ne	0x401b28  // b.any
  401a94:	d0000020 	adrp	x0, 0x407000
  401a98:	f9468800 	ldr	x0, [x0, #3344]
  401a9c:	b4000060 	cbz	x0, 0x401aa8
  401aa0:	b900001f 	str	wzr, [x0]
  401aa4:	b900041f 	str	wzr, [x0, #4]
  401aa8:	97ffffcd 	bl	0x4019dc
  401aac:	90000056 	adrp	x22, 0x409000
  401ab0:	7100027f 	cmp	w19, #0x0
  401ab4:	913922d6 	add	x22, x22, #0xe48
  401ab8:	d2800015 	mov	x21, #0x0                   	// #0
  401abc:	1a9f17f9 	cset	w25, eq  // eq = none
  401ac0:	2a1903e0 	mov	w0, w25
  401ac4:	97ffffc5 	bl	0x4019d8
  401ac8:	f8757ac0 	ldr	x0, [x22, x21, lsl #3]
  401acc:	f9400000 	ldr	x0, [x0]
  401ad0:	b4000060 	cbz	x0, 0x401adc
  401ad4:	34000313 	cbz	w19, 0x401b34
  401ad8:	940009d1 	bl	0x40421c
  401adc:	910006b5 	add	x21, x21, #0x1
  401ae0:	f1002ebf 	cmp	x21, #0xb
  401ae4:	54ffff21 	b.ne	0x401ac8  // b.any
  401ae8:	940009f3 	bl	0x4042b4
  401aec:	2a1903e0 	mov	w0, w25
  401af0:	97ffffba 	bl	0x4019d8
  401af4:	aa1703e0 	mov	x0, x23
  401af8:	94000031 	bl	0x401bbc
  401afc:	7100027f 	cmp	w19, #0x0
  401b00:	1a9f17e0 	cset	w0, eq  // eq = none
  401b04:	97ffffb5 	bl	0x4019d8
  401b08:	36f80053 	tbz	w19, #31, 0x401b10
  401b0c:	b9000298 	str	w24, [x20]
  401b10:	2a1303e0 	mov	w0, w19
  401b14:	a9415bf5 	ldp	x21, x22, [sp, #16]
  401b18:	a94263f7 	ldp	x23, x24, [sp, #32]
  401b1c:	a9437bf9 	ldp	x25, x30, [sp, #48]
  401b20:	a8cc53f3 	ldp	x19, x20, [sp], #192
  401b24:	d65f03c0 	ret
  401b28:	b90022a0 	str	w0, [x21, #32]
  401b2c:	f9400ab5 	ldr	x21, [x21, #16]
  401b30:	17ffffd7 	b	0x401a8c
  401b34:	b900001f 	str	wzr, [x0]
  401b38:	17ffffe9 	b	0x401adc
  401b3c:	aa0003e1 	mov	x1, x0
  401b40:	52800002 	mov	w2, #0x0                   	// #0
  401b44:	12800000 	mov	w0, #0xffffffff            	// #-1
  401b48:	14000001 	b	0x401b4c
  401b4c:	93407c43 	sxtw	x3, w2
  401b50:	aa0103e2 	mov	x2, x1
  401b54:	93407c01 	sxtw	x1, w0
  401b58:	d2800006 	mov	x6, #0x0                   	// #0
  401b5c:	d2800005 	mov	x5, #0x0                   	// #0
  401b60:	d2800004 	mov	x4, #0x0                   	// #0
  401b64:	f81f0ffe 	str	x30, [sp, #-16]!
  401b68:	d2802080 	mov	x0, #0x104                 	// #260
  401b6c:	940009cb 	bl	0x404298
  401b70:	97ffff84 	bl	0x401980
  401b74:	f84107fe 	ldr	x30, [sp], #16
  401b78:	d65f03c0 	ret
  401b7c:	aa0003e2 	mov	x2, x0
  401b80:	d0000021 	adrp	x1, 0x407000
  401b84:	d28010e8 	mov	x8, #0x87                  	// #135
  401b88:	d2800000 	mov	x0, #0x0                   	// #0
  401b8c:	91346021 	add	x1, x1, #0xd18
  401b90:	d2800103 	mov	x3, #0x8                   	// #8
  401b94:	d4000001 	svc	#0x0
  401b98:	d65f03c0 	ret
  401b9c:	aa0003e2 	mov	x2, x0
  401ba0:	d0000021 	adrp	x1, 0x407000
  401ba4:	d28010e8 	mov	x8, #0x87                  	// #135
  401ba8:	d2800000 	mov	x0, #0x0                   	// #0
  401bac:	91348021 	add	x1, x1, #0xd20
  401bb0:	d2800103 	mov	x3, #0x8                   	// #8
  401bb4:	d4000001 	svc	#0x0
  401bb8:	d65f03c0 	ret
  401bbc:	aa0003e1 	mov	x1, x0
  401bc0:	d28010e8 	mov	x8, #0x87                  	// #135
  401bc4:	d2800040 	mov	x0, #0x2                   	// #2
  401bc8:	d2800002 	mov	x2, #0x0                   	// #0
  401bcc:	d2800103 	mov	x3, #0x8                   	// #8
  401bd0:	d4000001 	svc	#0x0
  401bd4:	d65f03c0 	ret
  401bd8:	a9bc53f3 	stp	x19, x20, [sp, #-64]!
  401bdc:	2a0103f4 	mov	w20, w1
  401be0:	aa0203f3 	mov	x19, x2
  401be4:	a9015bf5 	stp	x21, x22, [sp, #16]
  401be8:	aa0003f5 	mov	x21, x0
  401bec:	b9408c40 	ldr	w0, [x2, #140]
  401bf0:	a90263f7 	stp	x23, x24, [sp, #32]
  401bf4:	a9037bf9 	stp	x25, x30, [sp, #48]
  401bf8:	37f802a0 	tbnz	w0, #31, 0x401c4c
  401bfc:	aa0203e0 	mov	x0, x2
  401c00:	94000b98 	bl	0x404a60
  401c04:	2a0003f8 	mov	w24, w0
  401c08:	71000696 	subs	w22, w20, #0x1
  401c0c:	5400092c 	b.gt	0x401d30
  401c10:	b9408a61 	ldr	w1, [x19, #136]
  401c14:	51000420 	sub	w0, w1, #0x1
  401c18:	2a010000 	orr	w0, w0, w1
  401c1c:	b9008a60 	str	w0, [x19, #136]
  401c20:	34000078 	cbz	w24, 0x401c2c
  401c24:	aa1303e0 	mov	x0, x19
  401c28:	94000bba 	bl	0x404b10
  401c2c:	350008b6 	cbnz	w22, 0x401d40
  401c30:	390002bf 	strb	wzr, [x21]
  401c34:	aa1503e0 	mov	x0, x21
  401c38:	a9415bf5 	ldp	x21, x22, [sp, #16]
  401c3c:	a94263f7 	ldp	x23, x24, [sp, #32]
  401c40:	a9437bf9 	ldp	x25, x30, [sp, #48]
  401c44:	a8c453f3 	ldp	x19, x20, [sp], #64
  401c48:	d65f03c0 	ret
  401c4c:	52800018 	mov	w24, #0x0                   	// #0
  401c50:	17ffffee 	b	0x401c08
  401c54:	a9408a60 	ldp	x0, x2, [x19, #8]
  401c58:	eb02001f 	cmp	x0, x2
  401c5c:	54000300 	b.eq	0x401cbc  // b.none
  401c60:	cb000042 	sub	x2, x2, x0
  401c64:	52800141 	mov	w1, #0xa                   	// #10
  401c68:	94000878 	bl	0x403e48
  401c6c:	aa0003f9 	mov	x25, x0
  401c70:	f9400677 	ldr	x23, [x19, #8]
  401c74:	b40003e0 	cbz	x0, 0x401cf0
  401c78:	cb170002 	sub	x2, x0, x23
  401c7c:	91000442 	add	x2, x2, #0x1
  401c80:	f9400661 	ldr	x1, [x19, #8]
  401c84:	eb36c05f 	cmp	x2, w22, sxtw
  401c88:	93407ed7 	sxtw	x23, w22
  401c8c:	aa1403e0 	mov	x0, x20
  401c90:	9a8222f7 	csel	x23, x23, x2, cs  // cs = hs, nlast
  401c94:	aa1703e2 	mov	x2, x23
  401c98:	940007c6 	bl	0x403bb0
  401c9c:	f9400660 	ldr	x0, [x19, #8]
  401ca0:	4b1702d6 	sub	w22, w22, w23
  401ca4:	f100033f 	cmp	x25, #0x0
  401ca8:	8b170294 	add	x20, x20, x23
  401cac:	8b170000 	add	x0, x0, x23
  401cb0:	f9000660 	str	x0, [x19, #8]
  401cb4:	7a400ac4 	ccmp	w22, #0x0, #0x4, eq  // eq = none
  401cb8:	54000300 	b.eq	0x401d18  // b.none
  401cbc:	a9408660 	ldp	x0, x1, [x19, #8]
  401cc0:	eb01001f 	cmp	x0, x1
  401cc4:	540001c0 	b.eq	0x401cfc  // b.none
  401cc8:	91000401 	add	x1, x0, #0x1
  401ccc:	f9000661 	str	x1, [x19, #8]
  401cd0:	39400000 	ldrb	w0, [x0]
  401cd4:	12001c01 	and	w1, w0, #0xff
  401cd8:	38001681 	strb	w1, [x20], #1
  401cdc:	510006d6 	sub	w22, w22, #0x1
  401ce0:	7100283f 	cmp	w1, #0xa
  401ce4:	540001a0 	b.eq	0x401d18  // b.none
  401ce8:	35fffb76 	cbnz	w22, 0x401c54
  401cec:	1400000b 	b	0x401d18
  401cf0:	f9400a62 	ldr	x2, [x19, #16]
  401cf4:	cb170042 	sub	x2, x2, x23
  401cf8:	17ffffe2 	b	0x401c80
  401cfc:	aa1303e0 	mov	x0, x19
  401d00:	94000c55 	bl	0x404e54
  401d04:	36fffe80 	tbz	w0, #31, 0x401cd4
  401d08:	eb15029f 	cmp	x20, x21
  401d0c:	54000160 	b.eq	0x401d38  // b.none
  401d10:	b9400260 	ldr	w0, [x19]
  401d14:	36200120 	tbz	w0, #4, 0x401d38
  401d18:	b4000055 	cbz	x21, 0x401d20
  401d1c:	3900029f 	strb	wzr, [x20]
  401d20:	34fff8b8 	cbz	w24, 0x401c34
  401d24:	aa1303e0 	mov	x0, x19
  401d28:	94000b7a 	bl	0x404b10
  401d2c:	17ffffc2 	b	0x401c34
  401d30:	aa1503f4 	mov	x20, x21
  401d34:	17ffffed 	b	0x401ce8
  401d38:	d2800015 	mov	x21, #0x0                   	// #0
  401d3c:	17fffff9 	b	0x401d20
  401d40:	d2800015 	mov	x21, #0x0                   	// #0
  401d44:	17ffffbc 	b	0x401c34
  401d48:	d10403ff 	sub	sp, sp, #0x100
  401d4c:	a90d0fe2 	stp	x2, x3, [sp, #208]
  401d50:	910403e2 	add	x2, sp, #0x100
  401d54:	a9030be2 	stp	x2, x2, [sp, #48]
  401d58:	910343e2 	add	x2, sp, #0xd0
  401d5c:	f90023e2 	str	x2, [sp, #64]
  401d60:	128005e2 	mov	w2, #0xffffffd0            	// #-48
  401d64:	b9004be2 	str	w2, [sp, #72]
  401d68:	12800fe2 	mov	w2, #0xffffff80            	// #-128
  401d6c:	b9004fe2 	str	w2, [sp, #76]
  401d70:	a9430fe2 	ldp	x2, x3, [sp, #48]
  401d74:	a9010fe2 	stp	x2, x3, [sp, #16]
  401d78:	a9440fe2 	ldp	x2, x3, [sp, #64]
  401d7c:	f90003fe 	str	x30, [sp]
  401d80:	a9020fe2 	stp	x2, x3, [sp, #32]
  401d84:	910043e2 	add	x2, sp, #0x10
  401d88:	3d8017e0 	str	q0, [sp, #80]
  401d8c:	3d801be1 	str	q1, [sp, #96]
  401d90:	3d801fe2 	str	q2, [sp, #112]
  401d94:	3d8023e3 	str	q3, [sp, #128]
  401d98:	3d8027e4 	str	q4, [sp, #144]
  401d9c:	3d802be5 	str	q5, [sp, #160]
  401da0:	3d802fe6 	str	q6, [sp, #176]
  401da4:	3d8033e7 	str	q7, [sp, #192]
  401da8:	a90e17e4 	stp	x4, x5, [sp, #224]
  401dac:	a90f1fe6 	stp	x6, x7, [sp, #240]
  401db0:	94000724 	bl	0x403a40
  401db4:	f94003fe 	ldr	x30, [sp]
  401db8:	910403ff 	add	sp, sp, #0x100
  401dbc:	d65f03c0 	ret
  401dc0:	a9bd53f3 	stp	x19, x20, [sp, #-48]!
  401dc4:	aa0203f3 	mov	x19, x2
  401dc8:	a9015bf5 	stp	x21, x22, [sp, #16]
  401dcc:	aa0003f6 	mov	x22, x0
  401dd0:	aa0103f5 	mov	x21, x1
  401dd4:	f9401040 	ldr	x0, [x2, #32]
  401dd8:	f90013fe 	str	x30, [sp, #32]
  401ddc:	b40001c0 	cbz	x0, 0x401e14
  401de0:	a9420660 	ldp	x0, x1, [x19, #32]
  401de4:	cb010000 	sub	x0, x0, x1
  401de8:	eb15001f 	cmp	x0, x21
  401dec:	540001e2 	b.cs	0x401e28  // b.hs, b.nlast
  401df0:	aa1503e2 	mov	x2, x21
  401df4:	aa1603e1 	mov	x1, x22
  401df8:	aa1303e0 	mov	x0, x19
  401dfc:	a9415bf5 	ldp	x21, x22, [sp, #16]
  401e00:	f94013fe 	ldr	x30, [sp, #32]
  401e04:	f9402663 	ldr	x3, [x19, #72]
  401e08:	a8c353f3 	ldp	x19, x20, [sp], #48
  401e0c:	aa0303f0 	mov	x16, x3
  401e10:	d61f0200 	br	x16
  401e14:	aa0203e0 	mov	x0, x2
  401e18:	94000bfc 	bl	0x404e08
  401e1c:	34fffe20 	cbz	w0, 0x401de0
  401e20:	d2800000 	mov	x0, #0x0                   	// #0
  401e24:	1400001a 	b	0x401e8c
  401e28:	b9409260 	ldr	w0, [x19, #144]
  401e2c:	aa1503f4 	mov	x20, x21
  401e30:	37f801e0 	tbnz	w0, #31, 0x401e6c
  401e34:	b4000394 	cbz	x20, 0x401ea4
  401e38:	d1000680 	sub	x0, x20, #0x1
  401e3c:	38606ac1 	ldrb	w1, [x22, x0]
  401e40:	7100283f 	cmp	w1, #0xa
  401e44:	540002c1 	b.ne	0x401e9c  // b.any
  401e48:	f9402663 	ldr	x3, [x19, #72]
  401e4c:	aa1403e2 	mov	x2, x20
  401e50:	aa1603e1 	mov	x1, x22
  401e54:	aa1303e0 	mov	x0, x19
  401e58:	d63f0060 	blr	x3
  401e5c:	eb00029f 	cmp	x20, x0
  401e60:	54000168 	b.hi	0x401e8c  // b.pmore
  401e64:	8b1402d6 	add	x22, x22, x20
  401e68:	cb1402b4 	sub	x20, x21, x20
  401e6c:	f9401660 	ldr	x0, [x19, #40]
  401e70:	aa1403e2 	mov	x2, x20
  401e74:	aa1603e1 	mov	x1, x22
  401e78:	9400074e 	bl	0x403bb0
  401e7c:	f9401662 	ldr	x2, [x19, #40]
  401e80:	aa1503e0 	mov	x0, x21
  401e84:	8b140054 	add	x20, x2, x20
  401e88:	f9001674 	str	x20, [x19, #40]
  401e8c:	a9415bf5 	ldp	x21, x22, [sp, #16]
  401e90:	f94013fe 	ldr	x30, [sp, #32]
  401e94:	a8c353f3 	ldp	x19, x20, [sp], #48
  401e98:	d65f03c0 	ret
  401e9c:	aa0003f4 	mov	x20, x0
  401ea0:	17ffffe5 	b	0x401e34
  401ea4:	aa1503f4 	mov	x20, x21
  401ea8:	17fffff1 	b	0x401e6c
  401eac:	a9bc53f3 	stp	x19, x20, [sp, #-64]!
  401eb0:	f100003f 	cmp	x1, #0x0
  401eb4:	aa0303f4 	mov	x20, x3
  401eb8:	a9015bf5 	stp	x21, x22, [sp, #16]
  401ebc:	aa0003f6 	mov	x22, x0
  401ec0:	b9408c60 	ldr	w0, [x3, #140]
  401ec4:	a90263f7 	stp	x23, x24, [sp, #32]
  401ec8:	aa0103f5 	mov	x21, x1
  401ecc:	9b027c38 	mul	x24, x1, x2
  401ed0:	f9001bfe 	str	x30, [sp, #48]
  401ed4:	9a9f1053 	csel	x19, x2, xzr, ne  // ne = any
  401ed8:	37f802a0 	tbnz	w0, #31, 0x401f2c
  401edc:	aa0303e0 	mov	x0, x3
  401ee0:	94000ae0 	bl	0x404a60
  401ee4:	2a0003f7 	mov	w23, w0
  401ee8:	aa1603e0 	mov	x0, x22
  401eec:	aa1403e2 	mov	x2, x20
  401ef0:	aa1803e1 	mov	x1, x24
  401ef4:	97ffffb3 	bl	0x401dc0
  401ef8:	aa0003f6 	mov	x22, x0
  401efc:	34000077 	cbz	w23, 0x401f08
  401f00:	aa1403e0 	mov	x0, x20
  401f04:	94000b03 	bl	0x404b10
  401f08:	eb16031f 	cmp	x24, x22
  401f0c:	54000040 	b.eq	0x401f14  // b.none
  401f10:	9ad50ad3 	udiv	x19, x22, x21
  401f14:	aa1303e0 	mov	x0, x19
  401f18:	a9415bf5 	ldp	x21, x22, [sp, #16]
  401f1c:	a94263f7 	ldp	x23, x24, [sp, #32]
  401f20:	f9401bfe 	ldr	x30, [sp, #48]
  401f24:	a8c453f3 	ldp	x19, x20, [sp], #64
  401f28:	d65f03c0 	ret
  401f2c:	52800017 	mov	w23, #0x0                   	// #0
  401f30:	17ffffee 	b	0x401ee8
  401f34:	d10443ff 	sub	sp, sp, #0x110
  401f38:	a90d8be1 	stp	x1, x2, [sp, #216]
  401f3c:	910443e1 	add	x1, sp, #0x110
  401f40:	a90307e1 	stp	x1, x1, [sp, #48]
  401f44:	910343e1 	add	x1, sp, #0xd0
  401f48:	f90023e1 	str	x1, [sp, #64]
  401f4c:	128006e1 	mov	w1, #0xffffffc8            	// #-56
  401f50:	b9004be1 	str	w1, [sp, #72]
  401f54:	12800fe1 	mov	w1, #0xffffff80            	// #-128
  401f58:	b9004fe1 	str	w1, [sp, #76]
  401f5c:	aa0003e1 	mov	x1, x0
  401f60:	a90e93e3 	stp	x3, x4, [sp, #232]
  401f64:	b0000040 	adrp	x0, 0x40a000
  401f68:	9107e000 	add	x0, x0, #0x1f8
  401f6c:	a9430fe2 	ldp	x2, x3, [sp, #48]
  401f70:	a9010fe2 	stp	x2, x3, [sp, #16]
  401f74:	a9440fe2 	ldp	x2, x3, [sp, #64]
  401f78:	f90003fe 	str	x30, [sp]
  401f7c:	a9020fe2 	stp	x2, x3, [sp, #32]
  401f80:	910043e2 	add	x2, sp, #0x10
  401f84:	3d8017e0 	str	q0, [sp, #80]
  401f88:	3d801be1 	str	q1, [sp, #96]
  401f8c:	3d801fe2 	str	q2, [sp, #112]
  401f90:	3d8023e3 	str	q3, [sp, #128]
  401f94:	3d8027e4 	str	q4, [sp, #144]
  401f98:	3d802be5 	str	q5, [sp, #160]
  401f9c:	3d802fe6 	str	q6, [sp, #176]
  401fa0:	3d8033e7 	str	q7, [sp, #192]
  401fa4:	a90f9be5 	stp	x5, x6, [sp, #248]
  401fa8:	f90087e7 	str	x7, [sp, #264]
  401fac:	940006a5 	bl	0x403a40
  401fb0:	f94003fe 	ldr	x30, [sp]
  401fb4:	910443ff 	add	sp, sp, #0x110
  401fb8:	d65f03c0 	ret
  401fbc:	a9bd53f3 	stp	x19, x20, [sp, #-48]!
  401fc0:	b0000054 	adrp	x20, 0x40a000
  401fc4:	a9015bf5 	stp	x21, x22, [sp, #16]
  401fc8:	aa0003f6 	mov	x22, x0
  401fcc:	9107e280 	add	x0, x20, #0x1f8
  401fd0:	b9408c01 	ldr	w1, [x0, #140]
  401fd4:	f90013fe 	str	x30, [sp, #32]
  401fd8:	37f80381 	tbnz	w1, #31, 0x402048
  401fdc:	94000aa1 	bl	0x404a60
  401fe0:	2a0003f5 	mov	w21, w0
  401fe4:	9107e293 	add	x19, x20, #0x1f8
  401fe8:	aa1603e0 	mov	x0, x22
  401fec:	aa1303e1 	mov	x1, x19
  401ff0:	94000ba9 	bl	0x404e94
  401ff4:	37f80380 	tbnz	w0, #31, 0x402064
  401ff8:	b9409260 	ldr	w0, [x19, #144]
  401ffc:	7100281f 	cmp	w0, #0xa
  402000:	54000280 	b.eq	0x402050  // b.none
  402004:	a9420261 	ldp	x1, x0, [x19, #32]
  402008:	eb01001f 	cmp	x0, x1
  40200c:	54000220 	b.eq	0x402050  // b.none
  402010:	91000401 	add	x1, x0, #0x1
  402014:	f9001661 	str	x1, [x19, #40]
  402018:	52800141 	mov	w1, #0xa                   	// #10
  40201c:	39000001 	strb	w1, [x0]
  402020:	52800001 	mov	w1, #0x0                   	// #0
  402024:	4b0103f3 	neg	w19, w1
  402028:	34000075 	cbz	w21, 0x402034
  40202c:	9107e280 	add	x0, x20, #0x1f8
  402030:	94000ab8 	bl	0x404b10
  402034:	2a1303e0 	mov	w0, w19
  402038:	a9415bf5 	ldp	x21, x22, [sp, #16]
  40203c:	f94013fe 	ldr	x30, [sp, #32]
  402040:	a8c353f3 	ldp	x19, x20, [sp], #48
  402044:	d65f03c0 	ret
  402048:	52800015 	mov	w21, #0x0                   	// #0
  40204c:	17ffffe6 	b	0x401fe4
  402050:	52800141 	mov	w1, #0xa                   	// #10
  402054:	9107e280 	add	x0, x20, #0x1f8
  402058:	94000abf 	bl	0x404b54
  40205c:	531f7c01 	lsr	w1, w0, #31
  402060:	17fffff1 	b	0x402024
  402064:	52800021 	mov	w1, #0x1                   	// #1
  402068:	17ffffef 	b	0x402024
  40206c:	51002421 	sub	w1, w1, #0x9
  402070:	7100443f 	cmp	w1, #0x11
  402074:	540011a8 	b.hi	0x4022a8  // b.pmore
  402078:	a9bf7bf3 	stp	x19, x30, [sp, #-16]!
  40207c:	aa0003f3 	mov	x19, x0
  402080:	b0000020 	adrp	x0, 0x407000
  402084:	9134a000 	add	x0, x0, #0xd28
  402088:	f9400043 	ldr	x3, [x2]
  40208c:	38614800 	ldrb	w0, [x0, w1, uxtw]
  402090:	10000061 	adr	x1, 0x40209c
  402094:	8b208820 	add	x0, x1, w0, sxtb #2
  402098:	d61f0000 	br	x0
  40209c:	b9401840 	ldr	w0, [x2, #24]
  4020a0:	37f80100 	tbnz	w0, #31, 0x4020c0
  4020a4:	91002c60 	add	x0, x3, #0xb
  4020a8:	927df000 	and	x0, x0, #0xfffffffffffffff8
  4020ac:	f9000040 	str	x0, [x2]
  4020b0:	b9800060 	ldrsw	x0, [x3]
  4020b4:	f9000260 	str	x0, [x19]
  4020b8:	a8c17bf3 	ldp	x19, x30, [sp], #16
  4020bc:	d65f03c0 	ret
  4020c0:	11002001 	add	w1, w0, #0x8
  4020c4:	b9001841 	str	w1, [x2, #24]
  4020c8:	7100003f 	cmp	w1, #0x0
  4020cc:	54fffecc 	b.gt	0x4020a4
  4020d0:	f9400443 	ldr	x3, [x2, #8]
  4020d4:	8b20c063 	add	x3, x3, w0, sxtw
  4020d8:	17fffff6 	b	0x4020b0
  4020dc:	b9401840 	ldr	w0, [x2, #24]
  4020e0:	37f800c0 	tbnz	w0, #31, 0x4020f8
  4020e4:	91002c60 	add	x0, x3, #0xb
  4020e8:	927df000 	and	x0, x0, #0xfffffffffffffff8
  4020ec:	f9000040 	str	x0, [x2]
  4020f0:	b9400060 	ldr	w0, [x3]
  4020f4:	17fffff0 	b	0x4020b4
  4020f8:	11002001 	add	w1, w0, #0x8
  4020fc:	b9001841 	str	w1, [x2, #24]
  402100:	7100003f 	cmp	w1, #0x0
  402104:	54ffff0c 	b.gt	0x4020e4
  402108:	f9400443 	ldr	x3, [x2, #8]
  40210c:	8b20c063 	add	x3, x3, w0, sxtw
  402110:	17fffff8 	b	0x4020f0
  402114:	b9401840 	ldr	w0, [x2, #24]
  402118:	37f800c0 	tbnz	w0, #31, 0x402130
  40211c:	91002c60 	add	x0, x3, #0xb
  402120:	927df000 	and	x0, x0, #0xfffffffffffffff8
  402124:	f9000040 	str	x0, [x2]
  402128:	79800060 	ldrsh	x0, [x3]
  40212c:	17ffffe2 	b	0x4020b4
  402130:	11002001 	add	w1, w0, #0x8
  402134:	b9001841 	str	w1, [x2, #24]
  402138:	7100003f 	cmp	w1, #0x0
  40213c:	54ffff0c 	b.gt	0x40211c
  402140:	f9400443 	ldr	x3, [x2, #8]
  402144:	8b20c063 	add	x3, x3, w0, sxtw
  402148:	17fffff8 	b	0x402128
  40214c:	b9401840 	ldr	w0, [x2, #24]
  402150:	37f800c0 	tbnz	w0, #31, 0x402168
  402154:	91002c60 	add	x0, x3, #0xb
  402158:	927df000 	and	x0, x0, #0xfffffffffffffff8
  40215c:	f9000040 	str	x0, [x2]
  402160:	79400060 	ldrh	w0, [x3]
  402164:	17ffffd4 	b	0x4020b4
  402168:	11002001 	add	w1, w0, #0x8
  40216c:	b9001841 	str	w1, [x2, #24]
  402170:	7100003f 	cmp	w1, #0x0
  402174:	54ffff0c 	b.gt	0x402154
  402178:	f9400443 	ldr	x3, [x2, #8]
  40217c:	8b20c063 	add	x3, x3, w0, sxtw
  402180:	17fffff8 	b	0x402160
  402184:	b9401840 	ldr	w0, [x2, #24]
  402188:	37f800c0 	tbnz	w0, #31, 0x4021a0
  40218c:	91002c60 	add	x0, x3, #0xb
  402190:	927df000 	and	x0, x0, #0xfffffffffffffff8
  402194:	f9000040 	str	x0, [x2]
  402198:	39800060 	ldrsb	x0, [x3]
  40219c:	17ffffc6 	b	0x4020b4
  4021a0:	11002001 	add	w1, w0, #0x8
  4021a4:	b9001841 	str	w1, [x2, #24]
  4021a8:	7100003f 	cmp	w1, #0x0
  4021ac:	54ffff0c 	b.gt	0x40218c
  4021b0:	f9400443 	ldr	x3, [x2, #8]
  4021b4:	8b20c063 	add	x3, x3, w0, sxtw
  4021b8:	17fffff8 	b	0x402198
  4021bc:	b9401840 	ldr	w0, [x2, #24]
  4021c0:	37f800c0 	tbnz	w0, #31, 0x4021d8
  4021c4:	91002c60 	add	x0, x3, #0xb
  4021c8:	927df000 	and	x0, x0, #0xfffffffffffffff8
  4021cc:	f9000040 	str	x0, [x2]
  4021d0:	39400060 	ldrb	w0, [x3]
  4021d4:	17ffffb8 	b	0x4020b4
  4021d8:	11002001 	add	w1, w0, #0x8
  4021dc:	b9001841 	str	w1, [x2, #24]
  4021e0:	7100003f 	cmp	w1, #0x0
  4021e4:	54ffff0c 	b.gt	0x4021c4
  4021e8:	f9400443 	ldr	x3, [x2, #8]
  4021ec:	8b20c063 	add	x3, x3, w0, sxtw
  4021f0:	17fffff8 	b	0x4021d0
  4021f4:	b9401840 	ldr	w0, [x2, #24]
  4021f8:	37f800c0 	tbnz	w0, #31, 0x402210
  4021fc:	91003c60 	add	x0, x3, #0xf
  402200:	927df000 	and	x0, x0, #0xfffffffffffffff8
  402204:	f9000040 	str	x0, [x2]
  402208:	f9400060 	ldr	x0, [x3]
  40220c:	17ffffaa 	b	0x4020b4
  402210:	11002001 	add	w1, w0, #0x8
  402214:	b9001841 	str	w1, [x2, #24]
  402218:	7100003f 	cmp	w1, #0x0
  40221c:	54ffff0c 	b.gt	0x4021fc
  402220:	f9400443 	ldr	x3, [x2, #8]
  402224:	8b20c063 	add	x3, x3, w0, sxtw
  402228:	17fffff8 	b	0x402208
  40222c:	b9401c40 	ldr	w0, [x2, #28]
  402230:	37f80100 	tbnz	w0, #31, 0x402250
  402234:	91003c60 	add	x0, x3, #0xf
  402238:	927df000 	and	x0, x0, #0xfffffffffffffff8
  40223c:	f9000040 	str	x0, [x2]
  402240:	fd400060 	ldr	d0, [x3]
  402244:	940015db 	bl	0x4079b0
  402248:	3d800260 	str	q0, [x19]
  40224c:	17ffff9b 	b	0x4020b8
  402250:	11004001 	add	w1, w0, #0x10
  402254:	b9001c41 	str	w1, [x2, #28]
  402258:	7100003f 	cmp	w1, #0x0
  40225c:	54fffecc 	b.gt	0x402234
  402260:	f9400843 	ldr	x3, [x2, #16]
  402264:	8b20c063 	add	x3, x3, w0, sxtw
  402268:	17fffff6 	b	0x402240
  40226c:	b9401c40 	ldr	w0, [x2, #28]
  402270:	37f800e0 	tbnz	w0, #31, 0x40228c
  402274:	91003c63 	add	x3, x3, #0xf
  402278:	927cec63 	and	x3, x3, #0xfffffffffffffff0
  40227c:	91004060 	add	x0, x3, #0x10
  402280:	f9000040 	str	x0, [x2]
  402284:	3dc00060 	ldr	q0, [x3]
  402288:	17fffff0 	b	0x402248
  40228c:	11004001 	add	w1, w0, #0x10
  402290:	b9001c41 	str	w1, [x2, #28]
  402294:	7100003f 	cmp	w1, #0x0
  402298:	54fffeec 	b.gt	0x402274
  40229c:	f9400843 	ldr	x3, [x2, #16]
  4022a0:	8b20c063 	add	x3, x3, w0, sxtw
  4022a4:	17fffff8 	b	0x402284
  4022a8:	d65f03c0 	ret
  4022ac:	aa0003e2 	mov	x2, x0
  4022b0:	aa0103e0 	mov	x0, x1
  4022b4:	d2800141 	mov	x1, #0xa                   	// #10
  4022b8:	b5000042 	cbnz	x2, 0x4022c0
  4022bc:	d65f03c0 	ret
  4022c0:	9ac10843 	udiv	x3, x2, x1
  4022c4:	9b018862 	msub	x2, x3, x1, x2
  4022c8:	1100c042 	add	w2, w2, #0x30
  4022cc:	381ffc02 	strb	w2, [x0, #-1]!
  4022d0:	aa0303e2 	mov	x2, x3
  4022d4:	17fffff9 	b	0x4022b8
  4022d8:	52999984 	mov	w4, #0xcccc                	// #52428
  4022dc:	aa0003e3 	mov	x3, x0
  4022e0:	72a19984 	movk	w4, #0xccc, lsl #16
  4022e4:	52800000 	mov	w0, #0x0                   	// #0
  4022e8:	12800005 	mov	w5, #0xffffffff            	// #-1
  4022ec:	12800126 	mov	w6, #0xfffffff6            	// #-10
  4022f0:	12b00007 	mov	w7, #0x7fffffff            	// #2147483647
  4022f4:	52800148 	mov	w8, #0xa                   	// #10
  4022f8:	f9400062 	ldr	x2, [x3]
  4022fc:	39400041 	ldrb	w1, [x2]
  402300:	5100c021 	sub	w1, w1, #0x30
  402304:	7100243f 	cmp	w1, #0x9
  402308:	54000049 	b.ls	0x402310  // b.plast
  40230c:	d65f03c0 	ret
  402310:	6b04001f 	cmp	w0, w4
  402314:	54000108 	b.hi	0x402334  // b.pmore
  402318:	1b061c09 	madd	w9, w0, w6, w7
  40231c:	1b080400 	madd	w0, w0, w8, w1
  402320:	6b09003f 	cmp	w1, w9
  402324:	1a85d000 	csel	w0, w0, w5, le
  402328:	91000442 	add	x2, x2, #0x1
  40232c:	f9000062 	str	x2, [x3]
  402330:	17fffff2 	b	0x4022f8
  402334:	12800000 	mov	w0, #0xffffffff            	// #-1
  402338:	17fffffc 	b	0x402328
  40233c:	aa0003e3 	mov	x3, x0
  402340:	aa0103e0 	mov	x0, x1
  402344:	aa0203e1 	mov	x1, x2
  402348:	b9400062 	ldr	w2, [x3]
  40234c:	37280062 	tbnz	w2, #5, 0x402358
  402350:	aa0303e2 	mov	x2, x3
  402354:	17fffe9b 	b	0x401dc0
  402358:	d65f03c0 	ret
  40235c:	12130c84 	and	w4, w4, #0x1e000
  402360:	12107484 	and	w4, w4, #0xffff3fff
  402364:	35000484 	cbnz	w4, 0x4023f4
  402368:	6b02007f 	cmp	w3, w2
  40236c:	5400044a 	b.ge	0x4023f4  // b.tcont
  402370:	a9ad53f3 	stp	x19, x20, [sp, #-304]!
  402374:	4b030053 	sub	w19, w2, w3
  402378:	7104027f 	cmp	w19, #0x100
  40237c:	52802002 	mov	w2, #0x100                 	// #256
  402380:	1a82d262 	csel	w2, w19, w2, le
  402384:	a9015bf5 	stp	x21, x22, [sp, #16]
  402388:	9100c3f5 	add	x21, sp, #0x30
  40238c:	aa0003f4 	mov	x20, x0
  402390:	12001c21 	and	w1, w1, #0xff
  402394:	93407c42 	sxtw	x2, w2
  402398:	aa1503e0 	mov	x0, x21
  40239c:	2a1303f6 	mov	w22, w19
  4023a0:	f90013fe 	str	x30, [sp, #32]
  4023a4:	94000667 	bl	0x403d40
  4023a8:	7103fedf 	cmp	w22, #0xff
  4023ac:	5400018c 	b.gt	0x4023dc
  4023b0:	53087e62 	lsr	w2, w19, #8
  4023b4:	12801fe3 	mov	w3, #0xffffff00            	// #-256
  4023b8:	aa1503e1 	mov	x1, x21
  4023bc:	aa1403e0 	mov	x0, x20
  4023c0:	1b034c42 	madd	w2, w2, w3, w19
  4023c4:	93407c42 	sxtw	x2, w2
  4023c8:	97ffffdd 	bl	0x40233c
  4023cc:	a9415bf5 	ldp	x21, x22, [sp, #16]
  4023d0:	f94013fe 	ldr	x30, [sp, #32]
  4023d4:	a8d353f3 	ldp	x19, x20, [sp], #304
  4023d8:	d65f03c0 	ret
  4023dc:	aa1503e1 	mov	x1, x21
  4023e0:	aa1403e0 	mov	x0, x20
  4023e4:	d2802002 	mov	x2, #0x100                 	// #256
  4023e8:	510402d6 	sub	w22, w22, #0x100
  4023ec:	97ffffd4 	bl	0x40233c
  4023f0:	17ffffee 	b	0x4023a8
  4023f4:	d65f03c0 	ret
  4023f8:	d283ba0c 	mov	x12, #0x1dd0                	// #7632
  4023fc:	cb2c63ff 	sub	sp, sp, x12
  402400:	a90053f3 	stp	x19, x20, [sp]
  402404:	aa0003f4 	mov	x20, x0
  402408:	2a0203f3 	mov	w19, w2
  40240c:	a9015bf5 	stp	x21, x22, [sp, #16]
  402410:	2a0103f6 	mov	w22, w1
  402414:	a90263f7 	stp	x23, x24, [sp, #32]
  402418:	2a0403f7 	mov	w23, w4
  40241c:	a9036bf9 	stp	x25, x26, [sp, #48]
  402420:	2a0303f9 	mov	w25, w3
  402424:	a90473fb 	stp	x27, x28, [sp, #64]
  402428:	f9002bfe 	str	x30, [sp, #80]
  40242c:	3d801be0 	str	q0, [sp, #96]
  402430:	b900cfff 	str	wzr, [sp, #204]
  402434:	a9466ffc 	ldp	x28, x27, [sp, #96]
  402438:	94000926 	bl	0x4048d0
  40243c:	34000560 	cbz	w0, 0x4024e8
  402440:	b0000038 	adrp	x24, 0x407000
  402444:	d241037b 	eor	x27, x27, #0x8000000000000000
  402448:	9134eb18 	add	x24, x24, #0xd3a
  40244c:	52800035 	mov	w21, #0x1                   	// #1
  402450:	a9066ffc 	stp	x28, x27, [sp, #96]
  402454:	3dc01be0 	ldr	q0, [sp, #96]
  402458:	94000909 	bl	0x40487c
  40245c:	7100041f 	cmp	w0, #0x1
  402460:	5400060c 	b.gt	0x402520
  402464:	a9066ffc 	stp	x28, x27, [sp, #96]
  402468:	721b02f7 	ands	w23, w23, #0x20
  40246c:	b0000020 	adrp	x0, 0x407000
  402470:	91354400 	add	x0, x0, #0xd51
  402474:	3dc01be1 	ldr	q1, [sp, #96]
  402478:	b0000033 	adrp	x19, 0x407000
  40247c:	91353673 	add	x19, x19, #0xd4d
  402480:	9a801273 	csel	x19, x19, x0, ne  // ne = any
  402484:	4ea11c20 	mov	v0.16b, v1.16b
  402488:	94000fa8 	bl	0x406328
  40248c:	340000e0 	cbz	w0, 0x4024a8
  402490:	710002ff 	cmp	w23, #0x0
  402494:	b0000020 	adrp	x0, 0x407000
  402498:	b0000033 	adrp	x19, 0x407000
  40249c:	91356400 	add	x0, x0, #0xd59
  4024a0:	91355673 	add	x19, x19, #0xd55
  4024a4:	9a801273 	csel	x19, x19, x0, ne  // ne = any
  4024a8:	11000eb7 	add	w23, w21, #0x3
  4024ac:	120f7b24 	and	w4, w25, #0xfffeffff
  4024b0:	2a1703e3 	mov	w3, w23
  4024b4:	2a1603e2 	mov	w2, w22
  4024b8:	aa1403e0 	mov	x0, x20
  4024bc:	52800401 	mov	w1, #0x20                  	// #32
  4024c0:	97ffffa7 	bl	0x40235c
  4024c4:	93407ea2 	sxtw	x2, w21
  4024c8:	aa1803e1 	mov	x1, x24
  4024cc:	aa1403e0 	mov	x0, x20
  4024d0:	97ffff9b 	bl	0x40233c
  4024d4:	aa1303e1 	mov	x1, x19
  4024d8:	d2800062 	mov	x2, #0x3                   	// #3
  4024dc:	aa1403e0 	mov	x0, x20
  4024e0:	97ffff97 	bl	0x40233c
  4024e4:	1400027e 	b	0x402edc
  4024e8:	375800d9 	tbnz	w25, #11, 0x402500
  4024ec:	37000139 	tbnz	w25, #0, 0x402510
  4024f0:	b0000038 	adrp	x24, 0x407000
  4024f4:	2a0003f5 	mov	w21, w0
  4024f8:	9134ef18 	add	x24, x24, #0xd3b
  4024fc:	17ffffd5 	b	0x402450
  402500:	b0000038 	adrp	x24, 0x407000
  402504:	52800035 	mov	w21, #0x1                   	// #1
  402508:	9134f718 	add	x24, x24, #0xd3d
  40250c:	17ffffd1 	b	0x402450
  402510:	b0000038 	adrp	x24, 0x407000
  402514:	52800035 	mov	w21, #0x1                   	// #1
  402518:	91350318 	add	x24, x24, #0xd40
  40251c:	17ffffcd 	b	0x402450
  402520:	a9066ffc 	stp	x28, x27, [sp, #96]
  402524:	910333e0 	add	x0, sp, #0xcc
  402528:	3dc01be0 	ldr	q0, [sp, #96]
  40252c:	940008f0 	bl	0x4048ec
  402530:	4ea01c01 	mov	v1.16b, v0.16b
  402534:	94000cb3 	bl	0x405800
  402538:	3d801be0 	str	q0, [sp, #96]
  40253c:	a9460fe5 	ldp	x5, x3, [sp, #96]
  402540:	6f00e401 	movi	v1.2d, #0x0
  402544:	aa0503fc 	mov	x28, x5
  402548:	aa0303fb 	mov	x27, x3
  40254c:	94000f77 	bl	0x406328
  402550:	34000080 	cbz	w0, 0x402560
  402554:	b940cfe0 	ldr	w0, [sp, #204]
  402558:	51000400 	sub	w0, w0, #0x1
  40255c:	b900cfe0 	str	w0, [sp, #204]
  402560:	321b02e0 	orr	w0, w23, #0x20
  402564:	b90063e0 	str	w0, [sp, #96]
  402568:	7101841f 	cmp	w0, #0x61
  40256c:	54001981 	b.ne	0x40289c  // b.any
  402570:	121b02e0 	and	w0, w23, #0x20
  402574:	b900a3e0 	str	w0, [sp, #160]
  402578:	36280057 	tbz	w23, #5, 0x402580
  40257c:	91002718 	add	x24, x24, #0x9
  402580:	11000ab5 	add	w21, w21, #0x2
  402584:	71006a7f 	cmp	w19, #0x1a
  402588:	54000348 	b.hi	0x4025f0  // b.pmore
  40258c:	b0000020 	adrp	x0, 0x407000
  402590:	9137c000 	add	x0, x0, #0xdf0
  402594:	5280037a 	mov	w26, #0x1b                  	// #27
  402598:	4b13035a 	sub	w26, w26, w19
  40259c:	3dc00002 	ldr	q2, [x0]
  4025a0:	5100075a 	sub	w26, w26, #0x1
  4025a4:	3100075f 	cmn	w26, #0x1
  4025a8:	54000e81 	b.ne	0x402778  // b.any
  4025ac:	39400300 	ldrb	w0, [x24]
  4025b0:	7100b41f 	cmp	w0, #0x2d
  4025b4:	54000f01 	b.ne	0x402794  // b.any
  4025b8:	d2410363 	eor	x3, x27, #0x8000000000000000
  4025bc:	a9060ffc 	stp	x28, x3, [sp, #96]
  4025c0:	4ea21c41 	mov	v1.16b, v2.16b
  4025c4:	3dc01be0 	ldr	q0, [sp, #96]
  4025c8:	3d801fe2 	str	q2, [sp, #112]
  4025cc:	94001193 	bl	0x406c18
  4025d0:	4ea01c01 	mov	v1.16b, v0.16b
  4025d4:	3dc01fe2 	ldr	q2, [sp, #112]
  4025d8:	4ea21c40 	mov	v0.16b, v2.16b
  4025dc:	94000c89 	bl	0x405800
  4025e0:	3d801be0 	str	q0, [sp, #96]
  4025e4:	a9460fe5 	ldp	x5, x3, [sp, #96]
  4025e8:	aa0503fc 	mov	x28, x5
  4025ec:	d241007b 	eor	x27, x3, #0x8000000000000000
  4025f0:	910343e0 	add	x0, sp, #0xd0
  4025f4:	f90033e0 	str	x0, [sp, #96]
  4025f8:	91003004 	add	x4, x0, #0xc
  4025fc:	b940cfe0 	ldr	w0, [sp, #204]
  402600:	aa0403e1 	mov	x1, x4
  402604:	7100001f 	cmp	w0, #0x0
  402608:	5a80a400 	cneg	w0, w0, lt  // lt = tstop
  40260c:	93407c00 	sxtw	x0, w0
  402610:	97ffff27 	bl	0x4022ac
  402614:	eb04001f 	cmp	x0, x4
  402618:	540000a1 	b.ne	0x40262c  // b.any
  40261c:	52800600 	mov	w0, #0x30                  	// #48
  402620:	39036fe0 	strb	w0, [sp, #219]
  402624:	f94033e0 	ldr	x0, [sp, #96]
  402628:	91002c00 	add	x0, x0, #0xb
  40262c:	b940cfe1 	ldr	w1, [sp, #204]
  402630:	52800562 	mov	w2, #0x2b                  	// #43
  402634:	11003ef7 	add	w23, w23, #0xf
  402638:	381fe017 	sturb	w23, [x0, #-2]
  40263c:	7100003f 	cmp	w1, #0x0
  402640:	528005a1 	mov	w1, #0x2d                  	// #45
  402644:	1a82b021 	csel	w1, w1, w2, lt  // lt = tstop
  402648:	381ff001 	sturb	w1, [x0, #-1]
  40264c:	d1000801 	sub	x1, x0, #0x2
  402650:	b0000020 	adrp	x0, 0x407000
  402654:	913fc000 	add	x0, x0, #0xff0
  402658:	910383fa 	add	x26, sp, #0xe0
  40265c:	f90043fa 	str	x26, [sp, #128]
  402660:	f9004fe1 	str	x1, [sp, #152]
  402664:	f90057e0 	str	x0, [sp, #168]
  402668:	121d0320 	and	w0, w25, #0x8
  40266c:	b900b3e0 	str	w0, [sp, #176]
  402670:	a9076ffc 	stp	x28, x27, [sp, #112]
  402674:	aa1a03f7 	mov	x23, x26
  402678:	3dc01fe0 	ldr	q0, [sp, #112]
  40267c:	9400141f 	bl	0x4076f8
  402680:	f94057e1 	ldr	x1, [sp, #168]
  402684:	3860c824 	ldrb	w4, [x1, w0, sxtw]
  402688:	b940a3e1 	ldr	w1, [sp, #160]
  40268c:	2a040024 	orr	w4, w1, w4
  402690:	380016e4 	strb	w4, [x23], #1
  402694:	9400148d 	bl	0x4078c8
  402698:	a9076ffc 	stp	x28, x27, [sp, #112]
  40269c:	4ea01c01 	mov	v1.16b, v0.16b
  4026a0:	3dc01fe0 	ldr	q0, [sp, #112]
  4026a4:	9400115d 	bl	0x406c18
  4026a8:	b0000020 	adrp	x0, 0x407000
  4026ac:	9137c000 	add	x0, x0, #0xdf0
  4026b0:	3dc00001 	ldr	q1, [x0]
  4026b4:	94000f5f 	bl	0x406430
  4026b8:	3d801fe0 	str	q0, [sp, #112]
  4026bc:	a9470fe5 	ldp	x5, x3, [sp, #112]
  4026c0:	f94043e0 	ldr	x0, [sp, #128]
  4026c4:	cb0002e0 	sub	x0, x23, x0
  4026c8:	aa0503fc 	mov	x28, x5
  4026cc:	aa0303fb 	mov	x27, x3
  4026d0:	f100041f 	cmp	x0, #0x1
  4026d4:	540001c1 	b.ne	0x40270c  // b.any
  4026d8:	6f00e401 	movi	v1.2d, #0x0
  4026dc:	94000f13 	bl	0x406328
  4026e0:	7100001f 	cmp	w0, #0x0
  4026e4:	1a9f07e4 	cset	w4, ne  // ne = any
  4026e8:	7100027f 	cmp	w19, #0x0
  4026ec:	1a9fd7e0 	cset	w0, gt
  4026f0:	2a040000 	orr	w0, w0, w4
  4026f4:	37000060 	tbnz	w0, #0, 0x402700
  4026f8:	b940b3e0 	ldr	w0, [sp, #176]
  4026fc:	34000120 	cbz	w0, 0x402720
  402700:	91000b57 	add	x23, x26, #0x2
  402704:	528005c0 	mov	w0, #0x2e                  	// #46
  402708:	39000740 	strb	w0, [x26, #1]
  40270c:	6f00e401 	movi	v1.2d, #0x0
  402710:	a9076ffc 	stp	x28, x27, [sp, #112]
  402714:	3dc01fe0 	ldr	q0, [sp, #112]
  402718:	94000f04 	bl	0x406328
  40271c:	35000560 	cbnz	w0, 0x4027c8
  402720:	f94033e0 	ldr	x0, [sp, #96]
  402724:	93407e61 	sxtw	x1, w19
  402728:	93407ebc 	sxtw	x28, w21
  40272c:	9100301a 	add	x26, x0, #0xc
  402730:	f9404fe0 	ldr	x0, [sp, #152]
  402734:	cb00035a 	sub	x26, x26, x0
  402738:	d29fffa0 	mov	x0, #0xfffd                	// #65533
  40273c:	f2afffe0 	movk	x0, #0x7fff, lsl #16
  402740:	cb1a0000 	sub	x0, x0, x26
  402744:	cb35c000 	sub	x0, x0, w21, sxtw
  402748:	eb33c01f 	cmp	x0, w19, sxtw
  40274c:	5400042a 	b.ge	0x4027d0  // b.tcont
  402750:	12800000 	mov	w0, #0xffffffff            	// #-1
  402754:	d283ba0c 	mov	x12, #0x1dd0                	// #7632
  402758:	a94053f3 	ldp	x19, x20, [sp]
  40275c:	a9415bf5 	ldp	x21, x22, [sp, #16]
  402760:	a94263f7 	ldp	x23, x24, [sp, #32]
  402764:	a9436bf9 	ldp	x25, x26, [sp, #48]
  402768:	a94473fb 	ldp	x27, x28, [sp, #64]
  40276c:	f9402bfe 	ldr	x30, [sp, #80]
  402770:	8b2c63ff 	add	sp, sp, x12
  402774:	d65f03c0 	ret
  402778:	b0000020 	adrp	x0, 0x407000
  40277c:	9137c000 	add	x0, x0, #0xdf0
  402780:	4ea21c40 	mov	v0.16b, v2.16b
  402784:	3dc00001 	ldr	q1, [x0]
  402788:	94000f2a 	bl	0x406430
  40278c:	4ea01c02 	mov	v2.16b, v0.16b
  402790:	17ffff84 	b	0x4025a0
  402794:	a9066ffc 	stp	x28, x27, [sp, #96]
  402798:	4ea21c40 	mov	v0.16b, v2.16b
  40279c:	3dc01be1 	ldr	q1, [sp, #96]
  4027a0:	3d801be2 	str	q2, [sp, #96]
  4027a4:	94000c17 	bl	0x405800
  4027a8:	3dc01be2 	ldr	q2, [sp, #96]
  4027ac:	4ea21c41 	mov	v1.16b, v2.16b
  4027b0:	9400111a 	bl	0x406c18
  4027b4:	3d801be0 	str	q0, [sp, #96]
  4027b8:	a9460fe5 	ldp	x5, x3, [sp, #96]
  4027bc:	aa0503fc 	mov	x28, x5
  4027c0:	aa0303fb 	mov	x27, x3
  4027c4:	17ffff8b 	b	0x4025f0
  4027c8:	aa1703fa 	mov	x26, x23
  4027cc:	17ffffa9 	b	0x402670
  4027d0:	f94043e0 	ldr	x0, [sp, #128]
  4027d4:	cb0002f7 	sub	x23, x23, x0
  4027d8:	0b17035b 	add	w27, w26, w23
  4027dc:	340005d3 	cbz	w19, 0x402894
  4027e0:	d10006e0 	sub	x0, x23, #0x1
  4027e4:	eb00003f 	cmp	x1, x0
  4027e8:	5400056b 	b.lt	0x402894  // b.tstop
  4027ec:	11000a73 	add	w19, w19, #0x2
  4027f0:	0b1a0273 	add	w19, w19, w26
  4027f4:	0b150275 	add	w21, w19, w21
  4027f8:	2a1903e4 	mov	w4, w25
  4027fc:	2a1503e3 	mov	w3, w21
  402800:	2a1603e2 	mov	w2, w22
  402804:	aa1403e0 	mov	x0, x20
  402808:	52800401 	mov	w1, #0x20                  	// #32
  40280c:	97fffed4 	bl	0x40235c
  402810:	aa1c03e2 	mov	x2, x28
  402814:	aa1803e1 	mov	x1, x24
  402818:	aa1403e0 	mov	x0, x20
  40281c:	97fffec8 	bl	0x40233c
  402820:	52100324 	eor	w4, w25, #0x10000
  402824:	2a1503e3 	mov	w3, w21
  402828:	2a1603e2 	mov	w2, w22
  40282c:	aa1403e0 	mov	x0, x20
  402830:	52800601 	mov	w1, #0x30                  	// #48
  402834:	97fffeca 	bl	0x40235c
  402838:	f94043e1 	ldr	x1, [sp, #128]
  40283c:	aa1703e2 	mov	x2, x23
  402840:	aa1403e0 	mov	x0, x20
  402844:	97fffebe 	bl	0x40233c
  402848:	52800004 	mov	w4, #0x0                   	// #0
  40284c:	52800003 	mov	w3, #0x0                   	// #0
  402850:	4b1b0262 	sub	w2, w19, w27
  402854:	aa1403e0 	mov	x0, x20
  402858:	52800601 	mov	w1, #0x30                  	// #48
  40285c:	97fffec0 	bl	0x40235c
  402860:	f9404fe1 	ldr	x1, [sp, #152]
  402864:	aa1a03e2 	mov	x2, x26
  402868:	aa1403e0 	mov	x0, x20
  40286c:	97fffeb4 	bl	0x40233c
  402870:	aa1403e0 	mov	x0, x20
  402874:	52130324 	eor	w4, w25, #0x2000
  402878:	2a1503e3 	mov	w3, w21
  40287c:	2a1603e2 	mov	w2, w22
  402880:	52800401 	mov	w1, #0x20                  	// #32
  402884:	97fffeb6 	bl	0x40235c
  402888:	6b1602bf 	cmp	w21, w22
  40288c:	1a96a2a0 	csel	w0, w21, w22, ge  // ge = tcont
  402890:	17ffffb1 	b	0x402754
  402894:	2a1b03f3 	mov	w19, w27
  402898:	17ffffd7 	b	0x4027f4
  40289c:	a9086ffc 	stp	x28, x27, [sp, #128]
  4028a0:	7100027f 	cmp	w19, #0x0
  4028a4:	528000c0 	mov	w0, #0x6                   	// #6
  4028a8:	6f00e401 	movi	v1.2d, #0x0
  4028ac:	3dc023e0 	ldr	q0, [sp, #128]
  4028b0:	1a80a273 	csel	w19, w19, w0, ge  // ge = tcont
  4028b4:	94000e9d 	bl	0x406328
  4028b8:	340001c0 	cbz	w0, 0x4028f0
  4028bc:	b0000020 	adrp	x0, 0x407000
  4028c0:	91380000 	add	x0, x0, #0xe00
  4028c4:	a9086ffc 	stp	x28, x27, [sp, #128]
  4028c8:	3dc00001 	ldr	q1, [x0]
  4028cc:	3dc023e0 	ldr	q0, [sp, #128]
  4028d0:	94000ed8 	bl	0x406430
  4028d4:	3d8023e0 	str	q0, [sp, #128]
  4028d8:	a9480fe5 	ldp	x5, x3, [sp, #128]
  4028dc:	b940cfe0 	ldr	w0, [sp, #204]
  4028e0:	51007000 	sub	w0, w0, #0x1c
  4028e4:	b900cfe0 	str	w0, [sp, #204]
  4028e8:	aa0503fc 	mov	x28, x5
  4028ec:	aa0303fb 	mov	x27, x3
  4028f0:	b940cfe6 	ldr	w6, [sp, #204]
  4028f4:	910423e7 	add	x7, sp, #0x108
  4028f8:	d2838103 	mov	x3, #0x1c08                	// #7176
  4028fc:	8b2363e0 	add	x0, sp, x3
  402900:	710000df 	cmp	w6, #0x0
  402904:	9a87a007 	csel	x7, x0, x7, ge  // ge = tcont
  402908:	aa0703fa 	mov	x26, x7
  40290c:	a9086ffc 	stp	x28, x27, [sp, #128]
  402910:	3dc023e0 	ldr	q0, [sp, #128]
  402914:	b9009be6 	str	w6, [sp, #152]
  402918:	f90053e7 	str	x7, [sp, #160]
  40291c:	940013b3 	bl	0x4077e8
  402920:	b8004740 	str	w0, [x26], #4
  402924:	94001409 	bl	0x407948
  402928:	a9086ffc 	stp	x28, x27, [sp, #128]
  40292c:	4ea01c01 	mov	v1.16b, v0.16b
  402930:	3dc023e0 	ldr	q0, [sp, #128]
  402934:	940010b9 	bl	0x406c18
  402938:	b0000020 	adrp	x0, 0x407000
  40293c:	91384000 	add	x0, x0, #0xe10
  402940:	3dc00001 	ldr	q1, [x0]
  402944:	94000ebb 	bl	0x406430
  402948:	3d8023e0 	str	q0, [sp, #128]
  40294c:	a9480fe5 	ldp	x5, x3, [sp, #128]
  402950:	6f00e401 	movi	v1.2d, #0x0
  402954:	aa0503fc 	mov	x28, x5
  402958:	aa0303fb 	mov	x27, x3
  40295c:	94000e73 	bl	0x406328
  402960:	b9409be6 	ldr	w6, [sp, #152]
  402964:	f94053e7 	ldr	x7, [sp, #160]
  402968:	35fffd20 	cbnz	w0, 0x40290c
  40296c:	d2994004 	mov	x4, #0xca00                	// #51712
  402970:	aa0703fb 	mov	x27, x7
  402974:	528003a9 	mov	w9, #0x1d                  	// #29
  402978:	f2a77344 	movk	x4, #0x3b9a, lsl #16
  40297c:	710000df 	cmp	w6, #0x0
  402980:	5400106c 	b.gt	0x402b8c
  402984:	34000040 	cbz	w0, 0x40298c
  402988:	b900cfe6 	str	w6, [sp, #204]
  40298c:	1100b660 	add	w0, w19, #0x2d
  402990:	52800121 	mov	w1, #0x9                   	// #9
  402994:	b940cfe8 	ldr	w8, [sp, #204]
  402998:	5299400d 	mov	w13, #0xca00                	// #51712
  40299c:	5280002c 	mov	w12, #0x1                   	// #1
  4029a0:	72a7734d 	movk	w13, #0x3b9a, lsl #16
  4029a4:	1ac10800 	udiv	w0, w0, w1
  4029a8:	11000409 	add	w9, w0, #0x1
  4029ac:	52800000 	mov	w0, #0x0                   	// #0
  4029b0:	d37ef52b 	lsl	x11, x9, #2
  4029b4:	37f81208 	tbnz	w8, #31, 0x402bf4
  4029b8:	34000040 	cbz	w0, 0x4029c0
  4029bc:	b900cfe8 	str	w8, [sp, #204]
  4029c0:	eb1a037f 	cmp	x27, x26
  4029c4:	54001662 	b.cs	0x402c90  // b.hs, b.nlast
  4029c8:	cb1b00e4 	sub	x4, x7, x27
  4029cc:	b9400361 	ldr	w1, [x27]
  4029d0:	52800140 	mov	w0, #0xa                   	// #10
  4029d4:	2a0003e2 	mov	w2, w0
  4029d8:	9342fc84 	asr	x4, x4, #2
  4029dc:	0b040c84 	add	w4, w4, w4, lsl #3
  4029e0:	6b00003f 	cmp	w1, w0
  4029e4:	54001502 	b.cs	0x402c84  // b.hs, b.nlast
  4029e8:	b94063e0 	ldr	w0, [sp, #96]
  4029ec:	b94063e1 	ldr	w1, [sp, #96]
  4029f0:	7101981f 	cmp	w0, #0x66
  4029f4:	1a9f1080 	csel	w0, w4, wzr, ne  // ne = any
  4029f8:	71019c3f 	cmp	w1, #0x67
  4029fc:	4b000260 	sub	w0, w19, w0
  402a00:	540014c1 	b.ne	0x402c98  // b.any
  402a04:	7100027f 	cmp	w19, #0x0
  402a08:	1a9f07e1 	cset	w1, ne  // ne = any
  402a0c:	4b010000 	sub	w0, w0, w1
  402a10:	cb070341 	sub	x1, x26, x7
  402a14:	9342fc21 	asr	x1, x1, #2
  402a18:	d1000421 	sub	x1, x1, #0x1
  402a1c:	8b010c21 	add	x1, x1, x1, lsl #3
  402a20:	eb20c03f 	cmp	x1, w0, sxtw
  402a24:	5400088d 	b.le	0x402b34
  402a28:	11409000 	add	w0, w0, #0x24, lsl #12
  402a2c:	52800121 	mov	w1, #0x9                   	// #9
  402a30:	929fff62 	mov	x2, #0xffffffffffff0004    	// #-65532
  402a34:	1ac10c01 	sdiv	w1, w0, w1
  402a38:	8b21c8fc 	add	x28, x7, w1, sxtw #2
  402a3c:	0b010c21 	add	w1, w1, w1, lsl #3
  402a40:	4b010000 	sub	w0, w0, w1
  402a44:	8b02039c 	add	x28, x28, x2
  402a48:	52800141 	mov	w1, #0xa                   	// #10
  402a4c:	11000400 	add	w0, w0, #0x1
  402a50:	2a0103e2 	mov	w2, w1
  402a54:	7100241f 	cmp	w0, #0x9
  402a58:	54001241 	b.ne	0x402ca0  // b.any
  402a5c:	b9400382 	ldr	w2, [x28]
  402a60:	1ac10840 	udiv	w0, w2, w1
  402a64:	1b018809 	msub	w9, w0, w1, w2
  402a68:	35000089 	cbnz	w9, 0x402a78
  402a6c:	91001383 	add	x3, x28, #0x4
  402a70:	eb03035f 	cmp	x26, x3
  402a74:	540005a0 	b.eq	0x402b28  // b.none
  402a78:	370011a0 	tbnz	w0, #0, 0x402cac
  402a7c:	52994000 	mov	w0, #0xca00                	// #51712
  402a80:	72a77340 	movk	w0, #0x3b9a, lsl #16
  402a84:	6b00003f 	cmp	w1, w0
  402a88:	fa5c0362 	ccmp	x27, x28, #0x2, eq  // eq = none
  402a8c:	54001142 	b.cs	0x402cb4  // b.hs, b.nlast
  402a90:	b85fc383 	ldur	w3, [x28, #-4]
  402a94:	92400063 	and	x3, x3, #0x1
  402a98:	13017c20 	asr	w0, w1, #1
  402a9c:	d2e80e08 	mov	x8, #0x4070000000000000    	// #4643211215818981376
  402aa0:	6b09001f 	cmp	w0, w9
  402aa4:	540010c8 	b.hi	0x402cbc  // b.pmore
  402aa8:	540010e1 	b.ne	0x402cc4  // b.any
  402aac:	91001380 	add	x0, x28, #0x4
  402ab0:	b2513bea 	mov	x10, #0x3fff800000000000    	// #4611545280939032576
  402ab4:	eb00035f 	cmp	x26, x0
  402ab8:	d2e7ffe0 	mov	x0, #0x3fff000000000000    	// #4611404543450677248
  402abc:	9a8a0000 	csel	x0, x0, x10, eq  // eq = none
  402ac0:	340000d5 	cbz	w21, 0x402ad8
  402ac4:	3940030a 	ldrb	w10, [x24]
  402ac8:	7100b55f 	cmp	w10, #0x2d
  402acc:	54000061 	b.ne	0x402ad8  // b.any
  402ad0:	d2410000 	eor	x0, x0, #0x8000000000000000
  402ad4:	d2f80e08 	mov	x8, #0xc070000000000000    	// #-4580160821035794432
  402ad8:	a90803ff 	stp	xzr, x0, [sp, #128]
  402adc:	4b090042 	sub	w2, w2, w9
  402ae0:	3dc023e1 	ldr	q1, [sp, #128]
  402ae4:	a90823e3 	stp	x3, x8, [sp, #128]
  402ae8:	3dc023e0 	ldr	q0, [sp, #128]
  402aec:	a9098fe8 	stp	x8, x3, [sp, #152]
  402af0:	b900abe2 	str	w2, [sp, #168]
  402af4:	291607e4 	stp	w4, w1, [sp, #176]
  402af8:	f9005fe7 	str	x7, [sp, #184]
  402afc:	94000b41 	bl	0x405800
  402b00:	a9498fe8 	ldp	x8, x3, [sp, #152]
  402b04:	a90823e3 	stp	x3, x8, [sp, #128]
  402b08:	3dc023e1 	ldr	q1, [sp, #128]
  402b0c:	94000e07 	bl	0x406328
  402b10:	b940abe2 	ldr	w2, [sp, #168]
  402b14:	b940b7e1 	ldr	w1, [sp, #180]
  402b18:	f9405fe7 	ldr	x7, [sp, #184]
  402b1c:	35000d80 	cbnz	w0, 0x402ccc
  402b20:	b940b3e4 	ldr	w4, [sp, #176]
  402b24:	b9000382 	str	w2, [x28]
  402b28:	9100139c 	add	x28, x28, #0x4
  402b2c:	eb1c035f 	cmp	x26, x28
  402b30:	9a9c935a 	csel	x26, x26, x28, ls  // ls = plast
  402b34:	eb1b035f 	cmp	x26, x27
  402b38:	54000069 	b.ls	0x402b44  // b.plast
  402b3c:	b85fc340 	ldur	w0, [x26, #-4]
  402b40:	34000fc0 	cbz	w0, 0x402d38
  402b44:	b94063e0 	ldr	w0, [sp, #96]
  402b48:	71019c1f 	cmp	w0, #0x67
  402b4c:	54001241 	b.ne	0x402d94  // b.any
  402b50:	7100027f 	cmp	w19, #0x0
  402b54:	1a9f1673 	csinc	w19, w19, wzr, ne  // ne = any
  402b58:	6b04027f 	cmp	w19, w4
  402b5c:	3a44c881 	ccmn	w4, #0x4, #0x1, gt
  402b60:	54000f0b 	b.lt	0x402d40  // b.tstop
  402b64:	11000480 	add	w0, w4, #0x1
  402b68:	510006f7 	sub	w23, w23, #0x1
  402b6c:	4b000273 	sub	w19, w19, w0
  402b70:	37181139 	tbnz	w25, #3, 0x402d94
  402b74:	eb1b035f 	cmp	x26, x27
  402b78:	54000069 	b.ls	0x402b84  // b.plast
  402b7c:	b85fc343 	ldur	w3, [x26, #-4]
  402b80:	35001c03 	cbnz	w3, 0x402f00
  402b84:	52800122 	mov	w2, #0x9                   	// #9
  402b88:	14000076 	b	0x402d60
  402b8c:	710074df 	cmp	w6, #0x1d
  402b90:	d1001343 	sub	x3, x26, #0x4
  402b94:	1a89d0c8 	csel	w8, w6, w9, le
  402b98:	52800001 	mov	w1, #0x0                   	// #0
  402b9c:	eb03037f 	cmp	x27, x3
  402ba0:	54000169 	b.ls	0x402bcc  // b.plast
  402ba4:	34000061 	cbz	w1, 0x402bb0
  402ba8:	d100137b 	sub	x27, x27, #0x4
  402bac:	b9000361 	str	w1, [x27]
  402bb0:	eb1b035f 	cmp	x26, x27
  402bb4:	54000069 	b.ls	0x402bc0  // b.plast
  402bb8:	b85fc340 	ldur	w0, [x26, #-4]
  402bbc:	34000180 	cbz	w0, 0x402bec
  402bc0:	4b0800c6 	sub	w6, w6, w8
  402bc4:	52800020 	mov	w0, #0x1                   	// #1
  402bc8:	17ffff6d 	b	0x40297c
  402bcc:	b9400060 	ldr	w0, [x3]
  402bd0:	9ac82000 	lsl	x0, x0, x8
  402bd4:	8b214000 	add	x0, x0, w1, uxtw
  402bd8:	9ac40802 	udiv	x2, x0, x4
  402bdc:	9b048041 	msub	x1, x2, x4, x0
  402be0:	b81fc461 	str	w1, [x3], #-4
  402be4:	2a0203e1 	mov	w1, w2
  402be8:	17ffffed 	b	0x402b9c
  402bec:	d100135a 	sub	x26, x26, #0x4
  402bf0:	17fffff0 	b	0x402bb0
  402bf4:	3100251f 	cmn	w8, #0x9
  402bf8:	5400034b 	b.lt	0x402c60  // b.tstop
  402bfc:	4b0803ea 	neg	w10, w8
  402c00:	1aca2183 	lsl	w3, w12, w10
  402c04:	aa1b03e1 	mov	x1, x27
  402c08:	51000463 	sub	w3, w3, #0x1
  402c0c:	1aca29ae 	asr	w14, w13, w10
  402c10:	52800000 	mov	w0, #0x0                   	// #0
  402c14:	eb1a003f 	cmp	x1, x26
  402c18:	54000283 	b.cc	0x402c68  // b.lo, b.ul, b.last
  402c1c:	b9400361 	ldr	w1, [x27]
  402c20:	35000041 	cbnz	w1, 0x402c28
  402c24:	9100137b 	add	x27, x27, #0x4
  402c28:	34000080 	cbz	w0, 0x402c38
  402c2c:	aa1a03e6 	mov	x6, x26
  402c30:	b80044c0 	str	w0, [x6], #4
  402c34:	aa0603fa 	mov	x26, x6
  402c38:	b94063e0 	ldr	w0, [sp, #96]
  402c3c:	7101981f 	cmp	w0, #0x66
  402c40:	9a9b00e0 	csel	x0, x7, x27, eq  // eq = none
  402c44:	cb000341 	sub	x1, x26, x0
  402c48:	eb81093f 	cmp	x9, x1, asr #2
  402c4c:	5400004a 	b.ge	0x402c54  // b.tcont
  402c50:	8b0b001a 	add	x26, x0, x11
  402c54:	0b0a0108 	add	w8, w8, w10
  402c58:	52800020 	mov	w0, #0x1                   	// #1
  402c5c:	17ffff56 	b	0x4029b4
  402c60:	5280012a 	mov	w10, #0x9                   	// #9
  402c64:	17ffffe7 	b	0x402c00
  402c68:	b9400022 	ldr	w2, [x1]
  402c6c:	1aca2444 	lsr	w4, w2, w10
  402c70:	0b000080 	add	w0, w4, w0
  402c74:	b8004420 	str	w0, [x1], #4
  402c78:	0a030040 	and	w0, w2, w3
  402c7c:	1b0e7c00 	mul	w0, w0, w14
  402c80:	17ffffe5 	b	0x402c14
  402c84:	1b027c00 	mul	w0, w0, w2
  402c88:	11000484 	add	w4, w4, #0x1
  402c8c:	17ffff55 	b	0x4029e0
  402c90:	52800004 	mov	w4, #0x0                   	// #0
  402c94:	17ffff55 	b	0x4029e8
  402c98:	52800001 	mov	w1, #0x0                   	// #0
  402c9c:	17ffff5c 	b	0x402a0c
  402ca0:	1b027c21 	mul	w1, w1, w2
  402ca4:	11000400 	add	w0, w0, #0x1
  402ca8:	17ffff6b 	b	0x402a54
  402cac:	d2800023 	mov	x3, #0x1                   	// #1
  402cb0:	17ffff7a 	b	0x402a98
  402cb4:	d2800003 	mov	x3, #0x0                   	// #0
  402cb8:	17ffff78 	b	0x402a98
  402cbc:	d2e7ffc0 	mov	x0, #0x3ffe000000000000    	// #4611123068473966592
  402cc0:	17ffff80 	b	0x402ac0
  402cc4:	b2513be0 	mov	x0, #0x3fff800000000000    	// #4611545280939032576
  402cc8:	17ffff7e 	b	0x402ac0
  402ccc:	0b020021 	add	w1, w1, w2
  402cd0:	b9000381 	str	w1, [x28]
  402cd4:	52993fe1 	mov	w1, #0xc9ff                	// #51711
  402cd8:	72a77341 	movk	w1, #0x3b9a, lsl #16
  402cdc:	b9400380 	ldr	w0, [x28]
  402ce0:	6b01001f 	cmp	w0, w1
  402ce4:	54000188 	b.hi	0x402d14  // b.pmore
  402ce8:	cb1b00e4 	sub	x4, x7, x27
  402cec:	b9400361 	ldr	w1, [x27]
  402cf0:	52800140 	mov	w0, #0xa                   	// #10
  402cf4:	2a0003e2 	mov	w2, w0
  402cf8:	9342fc84 	asr	x4, x4, #2
  402cfc:	0b040c84 	add	w4, w4, w4, lsl #3
  402d00:	6b00003f 	cmp	w1, w0
  402d04:	54fff123 	b.cc	0x402b28  // b.lo, b.ul, b.last
  402d08:	1b027c00 	mul	w0, w0, w2
  402d0c:	11000484 	add	w4, w4, #0x1
  402d10:	17fffffc 	b	0x402d00
  402d14:	b81fc79f 	str	wzr, [x28], #-4
  402d18:	eb1c037f 	cmp	x27, x28
  402d1c:	54000069 	b.ls	0x402d28  // b.plast
  402d20:	d100137b 	sub	x27, x27, #0x4
  402d24:	b900037f 	str	wzr, [x27]
  402d28:	b9400380 	ldr	w0, [x28]
  402d2c:	11000400 	add	w0, w0, #0x1
  402d30:	b9000380 	str	w0, [x28]
  402d34:	17ffffea 	b	0x402cdc
  402d38:	d100135a 	sub	x26, x26, #0x4
  402d3c:	17ffff7e 	b	0x402b34
  402d40:	51000af7 	sub	w23, w23, #0x2
  402d44:	51000673 	sub	w19, w19, #0x1
  402d48:	17ffff8a 	b	0x402b70
  402d4c:	1b087c00 	mul	w0, w0, w8
  402d50:	11000442 	add	w2, w2, #0x1
  402d54:	1ac00861 	udiv	w1, w3, w0
  402d58:	1b008c21 	msub	w1, w1, w0, w3
  402d5c:	34ffff81 	cbz	w1, 0x402d4c
  402d60:	cb070340 	sub	x0, x26, x7
  402d64:	321b02e1 	orr	w1, w23, #0x20
  402d68:	93407c42 	sxtw	x2, w2
  402d6c:	93407e73 	sxtw	x19, w19
  402d70:	9342fc00 	asr	x0, x0, #2
  402d74:	7101983f 	cmp	w1, #0x66
  402d78:	d1000400 	sub	x0, x0, #0x1
  402d7c:	8b000c00 	add	x0, x0, x0, lsl #3
  402d80:	54000c81 	b.ne	0x402f10  // b.any
  402d84:	eb020000 	subs	x0, x0, x2
  402d88:	9a9f5000 	csel	x0, x0, xzr, pl  // pl = nfrst
  402d8c:	eb13001f 	cmp	x0, x19
  402d90:	9a93d013 	csel	x19, x0, x19, le
  402d94:	321f77e0 	mov	w0, #0x7ffffffe            	// #2147483646
  402d98:	6b00027f 	cmp	w19, w0
  402d9c:	54ffcdaa 	b.ge	0x402750  // b.tcont
  402da0:	121d0320 	and	w0, w25, #0x8
  402da4:	b90083e0 	str	w0, [sp, #128]
  402da8:	2a000260 	orr	w0, w19, w0
  402dac:	11000668 	add	w8, w19, #0x1
  402db0:	7100001f 	cmp	w0, #0x0
  402db4:	b90063e0 	str	w0, [sp, #96]
  402db8:	1a880508 	cinc	w8, w8, ne  // ne = any
  402dbc:	321b02fc 	orr	w28, w23, #0x20
  402dc0:	12b0000b 	mov	w11, #0x7fffffff            	// #2147483647
  402dc4:	71019b9f 	cmp	w28, #0x66
  402dc8:	4b08016b 	sub	w11, w11, w8
  402dcc:	54000a61 	b.ne	0x402f18  // b.any
  402dd0:	6b0b009f 	cmp	w4, w11
  402dd4:	54ffcbec 	b.gt	0x402750
  402dd8:	7100009f 	cmp	w4, #0x0
  402ddc:	5400004d 	b.le	0x402de4
  402de0:	0b040108 	add	w8, w8, w4
  402de4:	710002bf 	cmp	w21, #0x0
  402de8:	f9004fe7 	str	x7, [sp, #152]
  402dec:	12b00000 	mov	w0, #0x7fffffff            	// #2147483647
  402df0:	321f77e1 	mov	w1, #0x7ffffffe            	// #2147483646
  402df4:	1a810000 	csel	w0, w0, w1, eq  // eq = none
  402df8:	6b08001f 	cmp	w0, w8
  402dfc:	54ffcaab 	b.lt	0x402750  // b.tstop
  402e00:	0b150117 	add	w23, w8, w21
  402e04:	2a1903e4 	mov	w4, w25
  402e08:	2a1703e3 	mov	w3, w23
  402e0c:	2a1603e2 	mov	w2, w22
  402e10:	aa1403e0 	mov	x0, x20
  402e14:	52800401 	mov	w1, #0x20                  	// #32
  402e18:	97fffd51 	bl	0x40235c
  402e1c:	93407ea2 	sxtw	x2, w21
  402e20:	aa1803e1 	mov	x1, x24
  402e24:	aa1403e0 	mov	x0, x20
  402e28:	97fffd45 	bl	0x40233c
  402e2c:	52100324 	eor	w4, w25, #0x10000
  402e30:	2a1703e3 	mov	w3, w23
  402e34:	2a1603e2 	mov	w2, w22
  402e38:	aa1403e0 	mov	x0, x20
  402e3c:	52800601 	mov	w1, #0x30                  	// #48
  402e40:	97fffd47 	bl	0x40235c
  402e44:	71019b9f 	cmp	w28, #0x66
  402e48:	f9404fe7 	ldr	x7, [sp, #152]
  402e4c:	540010e1 	b.ne	0x403068  // b.any
  402e50:	eb1b00ff 	cmp	x7, x27
  402e54:	910383f8 	add	x24, sp, #0xe0
  402e58:	9a9b90fb 	csel	x27, x7, x27, ls  // ls = plast
  402e5c:	91002715 	add	x21, x24, #0x9
  402e60:	aa1b03fc 	mov	x28, x27
  402e64:	f9003bf5 	str	x21, [sp, #112]
  402e68:	eb07039f 	cmp	x28, x7
  402e6c:	54000949 	b.ls	0x402f94  // b.plast
  402e70:	910010e0 	add	x0, x7, #0x4
  402e74:	d1000f61 	sub	x1, x27, #0x3
  402e78:	cb1b0000 	sub	x0, x0, x27
  402e7c:	910004e7 	add	x7, x7, #0x1
  402e80:	927ef400 	and	x0, x0, #0xfffffffffffffffc
  402e84:	eb0100ff 	cmp	x7, x1
  402e88:	9a9f2000 	csel	x0, x0, xzr, cs  // cs = hs, nlast
  402e8c:	8b000375 	add	x21, x27, x0
  402e90:	b94063e0 	ldr	w0, [sp, #96]
  402e94:	34000e60 	cbz	w0, 0x403060
  402e98:	910383fb 	add	x27, sp, #0xe0
  402e9c:	5280061c 	mov	w28, #0x30                  	// #48
  402ea0:	91002778 	add	x24, x27, #0x9
  402ea4:	aa1403e0 	mov	x0, x20
  402ea8:	d2800022 	mov	x2, #0x1                   	// #1
  402eac:	b0000021 	adrp	x1, 0x407000
  402eb0:	91357421 	add	x1, x1, #0xd5d
  402eb4:	97fffd22 	bl	0x40233c
  402eb8:	7100027f 	cmp	w19, #0x0
  402ebc:	fa5ac2a2 	ccmp	x21, x26, #0x2, gt
  402ec0:	54000a63 	b.cc	0x40300c  // b.lo, b.ul, b.last
  402ec4:	52800123 	mov	w3, #0x9                   	// #9
  402ec8:	aa1403e0 	mov	x0, x20
  402ecc:	0b030262 	add	w2, w19, w3
  402ed0:	52800004 	mov	w4, #0x0                   	// #0
  402ed4:	52800601 	mov	w1, #0x30                  	// #48
  402ed8:	97fffd21 	bl	0x40235c
  402edc:	aa1403e0 	mov	x0, x20
  402ee0:	52130324 	eor	w4, w25, #0x2000
  402ee4:	2a1703e3 	mov	w3, w23
  402ee8:	2a1603e2 	mov	w2, w22
  402eec:	52800401 	mov	w1, #0x20                  	// #32
  402ef0:	97fffd1b 	bl	0x40235c
  402ef4:	6b1602ff 	cmp	w23, w22
  402ef8:	1a96a2e0 	csel	w0, w23, w22, ge  // ge = tcont
  402efc:	17fffe16 	b	0x402754
  402f00:	52800140 	mov	w0, #0xa                   	// #10
  402f04:	52800002 	mov	w2, #0x0                   	// #0
  402f08:	2a0003e8 	mov	w8, w0
  402f0c:	17ffff92 	b	0x402d54
  402f10:	8b24c000 	add	x0, x0, w4, sxtw
  402f14:	17ffff9c 	b	0x402d84
  402f18:	910343ea 	add	x10, sp, #0xd0
  402f1c:	7100009f 	cmp	w4, #0x0
  402f20:	91003149 	add	x9, x10, #0xc
  402f24:	5a84a480 	cneg	w0, w4, lt  // lt = tstop
  402f28:	aa0903e1 	mov	x1, x9
  402f2c:	b90073e4 	str	w4, [sp, #112]
  402f30:	93407c00 	sxtw	x0, w0
  402f34:	f9004fe7 	str	x7, [sp, #152]
  402f38:	97fffcdd 	bl	0x4022ac
  402f3c:	b94073e4 	ldr	w4, [sp, #112]
  402f40:	52800602 	mov	w2, #0x30                  	// #48
  402f44:	f9404fe7 	ldr	x7, [sp, #152]
  402f48:	cb000121 	sub	x1, x9, x0
  402f4c:	f100043f 	cmp	x1, #0x1
  402f50:	540001ed 	b.le	0x402f8c
  402f54:	7100009f 	cmp	w4, #0x0
  402f58:	528005a1 	mov	w1, #0x2d                  	// #45
  402f5c:	52800562 	mov	w2, #0x2b                  	// #43
  402f60:	1a82b021 	csel	w1, w1, w2, lt  // lt = tstop
  402f64:	381fe017 	sturb	w23, [x0, #-2]
  402f68:	381ff001 	sturb	w1, [x0, #-1]
  402f6c:	d1000801 	sub	x1, x0, #0x2
  402f70:	91003140 	add	x0, x10, #0xc
  402f74:	f9003be1 	str	x1, [sp, #112]
  402f78:	cb010000 	sub	x0, x0, x1
  402f7c:	eb2bc01f 	cmp	x0, w11, sxtw
  402f80:	54ffbe8c 	b.gt	0x402750
  402f84:	0b000108 	add	w8, w8, w0
  402f88:	17ffff97 	b	0x402de4
  402f8c:	381ffc02 	strb	w2, [x0, #-1]!
  402f90:	17ffffee 	b	0x402f48
  402f94:	b9400380 	ldr	w0, [x28]
  402f98:	aa1503e1 	mov	x1, x21
  402f9c:	f90043e7 	str	x7, [sp, #128]
  402fa0:	97fffcc3 	bl	0x4022ac
  402fa4:	aa0003e1 	mov	x1, x0
  402fa8:	eb1b039f 	cmp	x28, x27
  402fac:	f94043e7 	ldr	x7, [sp, #128]
  402fb0:	54000121 	b.ne	0x402fd4  // b.any
  402fb4:	eb15001f 	cmp	x0, x21
  402fb8:	540001a1 	b.ne	0x402fec  // b.any
  402fbc:	52800600 	mov	w0, #0x30                  	// #48
  402fc0:	91002301 	add	x1, x24, #0x8
  402fc4:	3903a3e0 	strb	w0, [sp, #232]
  402fc8:	14000009 	b	0x402fec
  402fcc:	52800602 	mov	w2, #0x30                  	// #48
  402fd0:	381ffc02 	strb	w2, [x0, #-1]!
  402fd4:	eb18001f 	cmp	x0, x24
  402fd8:	54ffffa8 	b.hi	0x402fcc  // b.pmore
  402fdc:	cb010300 	sub	x0, x24, x1
  402fe0:	eb18003f 	cmp	x1, x24
  402fe4:	9a9f2000 	csel	x0, x0, xzr, cs  // cs = hs, nlast
  402fe8:	8b000021 	add	x1, x1, x0
  402fec:	f9403be0 	ldr	x0, [sp, #112]
  402ff0:	f90043e7 	str	x7, [sp, #128]
  402ff4:	9100139c 	add	x28, x28, #0x4
  402ff8:	cb010002 	sub	x2, x0, x1
  402ffc:	aa1403e0 	mov	x0, x20
  403000:	97fffccf 	bl	0x40233c
  403004:	f94043e7 	ldr	x7, [sp, #128]
  403008:	17ffff98 	b	0x402e68
  40300c:	b94002a0 	ldr	w0, [x21]
  403010:	aa1803e1 	mov	x1, x24
  403014:	97fffca6 	bl	0x4022ac
  403018:	aa0003e1 	mov	x1, x0
  40301c:	eb1b003f 	cmp	x1, x27
  403020:	540001c8 	b.hi	0x403058  // b.pmore
  403024:	eb1b001f 	cmp	x0, x27
  403028:	cb000361 	sub	x1, x27, x0
  40302c:	9a9f2021 	csel	x1, x1, xzr, cs  // cs = hs, nlast
  403030:	7100267f 	cmp	w19, #0x9
  403034:	52800122 	mov	w2, #0x9                   	// #9
  403038:	1a82d262 	csel	w2, w19, w2, le
  40303c:	8b010001 	add	x1, x0, x1
  403040:	910012b5 	add	x21, x21, #0x4
  403044:	93407c42 	sxtw	x2, w2
  403048:	aa1403e0 	mov	x0, x20
  40304c:	51002673 	sub	w19, w19, #0x9
  403050:	97fffcbb 	bl	0x40233c
  403054:	17ffff99 	b	0x402eb8
  403058:	381ffc3c 	strb	w28, [x1, #-1]!
  40305c:	17fffff0 	b	0x40301c
  403060:	52800013 	mov	w19, #0x0                   	// #0
  403064:	17ffff98 	b	0x402ec4
  403068:	eb1b035f 	cmp	x26, x27
  40306c:	54000048 	b.hi	0x403074  // b.pmore
  403070:	9100137a 	add	x26, x27, #0x4
  403074:	910383f5 	add	x21, sp, #0xe0
  403078:	90000020 	adrp	x0, 0x407000
  40307c:	aa1b03f8 	mov	x24, x27
  403080:	91357400 	add	x0, x0, #0xd5d
  403084:	f90033e0 	str	x0, [sp, #96]
  403088:	910026a0 	add	x0, x21, #0x9
  40308c:	f9004fe0 	str	x0, [sp, #152]
  403090:	7100027f 	cmp	w19, #0x0
  403094:	fa5aa302 	ccmp	x24, x26, #0x2, ge  // ge = tcont
  403098:	54000183 	b.cc	0x4030c8  // b.lo, b.ul, b.last
  40309c:	aa1403e0 	mov	x0, x20
  4030a0:	52800243 	mov	w3, #0x12                  	// #18
  4030a4:	52800601 	mov	w1, #0x30                  	// #48
  4030a8:	0b030262 	add	w2, w19, w3
  4030ac:	52800004 	mov	w4, #0x0                   	// #0
  4030b0:	97fffcab 	bl	0x40235c
  4030b4:	f9403be0 	ldr	x0, [sp, #112]
  4030b8:	910373e2 	add	x2, sp, #0xdc
  4030bc:	cb000042 	sub	x2, x2, x0
  4030c0:	aa0003e1 	mov	x1, x0
  4030c4:	17fffd06 	b	0x4024dc
  4030c8:	b9400300 	ldr	w0, [x24]
  4030cc:	910026a4 	add	x4, x21, #0x9
  4030d0:	aa0403e1 	mov	x1, x4
  4030d4:	97fffc76 	bl	0x4022ac
  4030d8:	aa0003e1 	mov	x1, x0
  4030dc:	eb04001f 	cmp	x0, x4
  4030e0:	54000081 	b.ne	0x4030f0  // b.any
  4030e4:	910022a1 	add	x1, x21, #0x8
  4030e8:	52800600 	mov	w0, #0x30                  	// #48
  4030ec:	3903a3e0 	strb	w0, [sp, #232]
  4030f0:	eb1b031f 	cmp	x24, x27
  4030f4:	54000421 	b.ne	0x403178  // b.any
  4030f8:	aa1403e0 	mov	x0, x20
  4030fc:	9100043c 	add	x28, x1, #0x1
  403100:	d2800022 	mov	x2, #0x1                   	// #1
  403104:	97fffc8e 	bl	0x40233c
  403108:	b94083e0 	ldr	w0, [sp, #128]
  40310c:	2a130000 	orr	w0, w0, w19
  403110:	340001a0 	cbz	w0, 0x403144
  403114:	f94033e1 	ldr	x1, [sp, #96]
  403118:	aa1403e0 	mov	x0, x20
  40311c:	d2800022 	mov	x2, #0x1                   	// #1
  403120:	97fffc87 	bl	0x40233c
  403124:	14000008 	b	0x403144
  403128:	381ffc02 	strb	w2, [x0, #-1]!
  40312c:	eb15001f 	cmp	x0, x21
  403130:	54ffffc8 	b.hi	0x403128  // b.pmore
  403134:	cb0102a3 	sub	x3, x21, x1
  403138:	eb15003f 	cmp	x1, x21
  40313c:	9a9f2063 	csel	x3, x3, xzr, cs  // cs = hs, nlast
  403140:	8b03003c 	add	x28, x1, x3
  403144:	f9404fe0 	ldr	x0, [sp, #152]
  403148:	93407e62 	sxtw	x2, w19
  40314c:	aa1c03e1 	mov	x1, x28
  403150:	91001318 	add	x24, x24, #0x4
  403154:	cb1c0004 	sub	x4, x0, x28
  403158:	aa1403e0 	mov	x0, x20
  40315c:	eb33c09f 	cmp	x4, w19, sxtw
  403160:	f90053e4 	str	x4, [sp, #160]
  403164:	9a84a042 	csel	x2, x2, x4, ge  // ge = tcont
  403168:	97fffc75 	bl	0x40233c
  40316c:	f94053e4 	ldr	x4, [sp, #160]
  403170:	4b040273 	sub	w19, w19, w4
  403174:	17ffffc7 	b	0x403090
  403178:	aa0103e0 	mov	x0, x1
  40317c:	52800602 	mov	w2, #0x30                  	// #48
  403180:	17ffffeb 	b	0x40312c
  403184:	a9af53f3 	stp	x19, x20, [sp, #-272]!
  403188:	52800014 	mov	w20, #0x0                   	// #0
  40318c:	a9015bf5 	stp	x21, x22, [sp, #16]
  403190:	aa0003f5 	mov	x21, x0
  403194:	910363e0 	add	x0, sp, #0xd8
  403198:	a90263f7 	stp	x23, x24, [sp, #32]
  40319c:	aa0203f7 	mov	x23, x2
  4031a0:	52800016 	mov	w22, #0x0                   	// #0
  4031a4:	a9036bf9 	stp	x25, x26, [sp, #48]
  4031a8:	9100dc19 	add	x25, x0, #0x37
  4031ac:	a90473fb 	stp	x27, x28, [sp, #64]
  4031b0:	f9002bfe 	str	x30, [sp, #80]
  4031b4:	b90067ff 	str	wzr, [sp, #100]
  4031b8:	a90683e4 	stp	x4, x0, [sp, #104]
  4031bc:	9102a3e0 	add	x0, sp, #0xa8
  4031c0:	f9003fe3 	str	x3, [sp, #120]
  4031c4:	f90047e0 	str	x0, [sp, #136]
  4031c8:	f9005be1 	str	x1, [sp, #176]
  4031cc:	f9405bfc 	ldr	x28, [sp, #176]
  4031d0:	0b1402d6 	add	w22, w22, w20
  4031d4:	39400380 	ldrb	w0, [x28]
  4031d8:	35000220 	cbnz	w0, 0x40321c
  4031dc:	b5001c75 	cbnz	x21, 0x403568
  4031e0:	b94067e0 	ldr	w0, [sp, #100]
  4031e4:	34001c00 	cbz	w0, 0x403564
  4031e8:	d2800033 	mov	x19, #0x1                   	// #1
  4031ec:	f94037e0 	ldr	x0, [sp, #104]
  4031f0:	b8737801 	ldr	w1, [x0, x19, lsl #2]
  4031f4:	35004141 	cbnz	w1, 0x403a1c
  4031f8:	f94037e0 	ldr	x0, [sp, #104]
  4031fc:	b8737800 	ldr	w0, [x0, x19, lsl #2]
  403200:	35001260 	cbnz	w0, 0x40344c
  403204:	91000673 	add	x19, x19, #0x1
  403208:	f1002a7f 	cmp	x19, #0xa
  40320c:	54ffff61 	b.ne	0x4031f8  // b.any
  403210:	1400020a 	b	0x403a38
  403214:	910004c6 	add	x6, x6, #0x1
  403218:	f9005be6 	str	x6, [sp, #176]
  40321c:	f9405be6 	ldr	x6, [sp, #176]
  403220:	394000c0 	ldrb	w0, [x6]
  403224:	7100941f 	cmp	w0, #0x25
  403228:	7a401804 	ccmp	w0, #0x0, #0x4, ne  // ne = any
  40322c:	54ffff41 	b.ne	0x403214  // b.any
  403230:	f9405be0 	ldr	x0, [sp, #176]
  403234:	39400001 	ldrb	w1, [x0]
  403238:	7100943f 	cmp	w1, #0x25
  40323c:	54000081 	b.ne	0x40324c  // b.any
  403240:	39400401 	ldrb	w1, [x0, #1]
  403244:	7100943f 	cmp	w1, #0x25
  403248:	54000e60 	b.eq	0x403414  // b.none
  40324c:	12b00000 	mov	w0, #0x7fffffff            	// #2147483647
  403250:	4b160000 	sub	w0, w0, w22
  403254:	b90083e0 	str	w0, [sp, #128]
  403258:	cb1c00d8 	sub	x24, x6, x28
  40325c:	eb20c31f 	cmp	x24, w0, sxtw
  403260:	5400398c 	b.gt	0x403990
  403264:	2a1803f4 	mov	w20, w24
  403268:	b40000b5 	cbz	x21, 0x40327c
  40326c:	93407f02 	sxtw	x2, w24
  403270:	aa1c03e1 	mov	x1, x28
  403274:	aa1503e0 	mov	x0, x21
  403278:	97fffc31 	bl	0x40233c
  40327c:	35003858 	cbnz	w24, 0x403984
  403280:	f9405be2 	ldr	x2, [sp, #176]
  403284:	39400441 	ldrb	w1, [x2, #1]
  403288:	5100c021 	sub	w1, w1, #0x30
  40328c:	7100243f 	cmp	w1, #0x9
  403290:	54000ca8 	b.hi	0x403424  // b.pmore
  403294:	39400840 	ldrb	w0, [x2, #2]
  403298:	7100901f 	cmp	w0, #0x24
  40329c:	54000c41 	b.ne	0x403424  // b.any
  4032a0:	2a0103ea 	mov	w10, w1
  4032a4:	91000c42 	add	x2, x2, #0x3
  4032a8:	52800020 	mov	w0, #0x1                   	// #1
  4032ac:	b90067e0 	str	w0, [sp, #100]
  4032b0:	52851124 	mov	w4, #0x2889                	// #10377
  4032b4:	5280001b 	mov	w27, #0x0                   	// #0
  4032b8:	72a00024 	movk	w4, #0x1, lsl #16
  4032bc:	52800025 	mov	w5, #0x1                   	// #1
  4032c0:	f9005be2 	str	x2, [sp, #176]
  4032c4:	f9405be1 	ldr	x1, [sp, #176]
  4032c8:	39400022 	ldrb	w2, [x1]
  4032cc:	51008040 	sub	w0, w2, #0x20
  4032d0:	71007c1f 	cmp	w0, #0x1f
  4032d4:	54000068 	b.hi	0x4032e0  // b.pmore
  4032d8:	1ac02483 	lsr	w3, w4, w0
  4032dc:	37000aa3 	tbnz	w3, #0, 0x403430
  4032e0:	7100a85f 	cmp	w2, #0x2a
  4032e4:	54000e61 	b.ne	0x4034b0  // b.any
  4032e8:	39400420 	ldrb	w0, [x1, #1]
  4032ec:	5100c002 	sub	w2, w0, #0x30
  4032f0:	7100245f 	cmp	w2, #0x9
  4032f4:	54000a88 	b.hi	0x403444  // b.pmore
  4032f8:	39400822 	ldrb	w2, [x1, #2]
  4032fc:	7100905f 	cmp	w2, #0x24
  403300:	54000a21 	b.ne	0x403444  // b.any
  403304:	f94037e2 	ldr	x2, [sp, #104]
  403308:	91000c21 	add	x1, x1, #0x3
  40330c:	8b200840 	add	x0, x2, w0, uxtb #2
  403310:	52800142 	mov	w2, #0xa                   	// #10
  403314:	b8140002 	stur	w2, [x0, #-192]
  403318:	92805fe2 	mov	x2, #0xfffffffffffffd00    	// #-768
  40331c:	385fe020 	ldurb	w0, [x1, #-2]
  403320:	f9005be1 	str	x1, [sp, #176]
  403324:	8b205040 	add	x0, x2, w0, uxtw #4
  403328:	f9403fe2 	ldr	x2, [sp, #120]
  40332c:	b8606853 	ldr	w19, [x2, x0]
  403330:	52800020 	mov	w0, #0x1                   	// #1
  403334:	b90067e0 	str	w0, [sp, #100]
  403338:	36f80073 	tbz	w19, #31, 0x403344
  40333c:	3213037b 	orr	w27, w27, #0x2000
  403340:	4b1303f3 	neg	w19, w19
  403344:	f9405be1 	ldr	x1, [sp, #176]
  403348:	39400020 	ldrb	w0, [x1]
  40334c:	7100b81f 	cmp	w0, #0x2e
  403350:	54000ee1 	b.ne	0x40352c  // b.any
  403354:	39400420 	ldrb	w0, [x1, #1]
  403358:	7100a81f 	cmp	w0, #0x2a
  40335c:	54000da1 	b.ne	0x403510  // b.any
  403360:	39400820 	ldrb	w0, [x1, #2]
  403364:	5100c002 	sub	w2, w0, #0x30
  403368:	7100245f 	cmp	w2, #0x9
  40336c:	54000ac8 	b.hi	0x4034c4  // b.pmore
  403370:	39400c22 	ldrb	w2, [x1, #3]
  403374:	7100905f 	cmp	w2, #0x24
  403378:	54000a61 	b.ne	0x4034c4  // b.any
  40337c:	f94037e2 	ldr	x2, [sp, #104]
  403380:	91001021 	add	x1, x1, #0x4
  403384:	8b200840 	add	x0, x2, w0, uxtb #2
  403388:	52800142 	mov	w2, #0xa                   	// #10
  40338c:	b8140002 	stur	w2, [x0, #-192]
  403390:	92805fe2 	mov	x2, #0xfffffffffffffd00    	// #-768
  403394:	385fe020 	ldurb	w0, [x1, #-2]
  403398:	8b205040 	add	x0, x2, w0, uxtw #4
  40339c:	f9403fe2 	ldr	x2, [sp, #120]
  4033a0:	b8606858 	ldr	w24, [x2, x0]
  4033a4:	2a3803e3 	mvn	w3, w24
  4033a8:	f9005be1 	str	x1, [sp, #176]
  4033ac:	531f7c7a 	lsr	w26, w3, #31
  4033b0:	90000022 	adrp	x2, 0x407000
  4033b4:	91388042 	add	x2, x2, #0xe20
  4033b8:	52800005 	mov	w5, #0x0                   	// #0
  4033bc:	d2800744 	mov	x4, #0x3a                  	// #58
  4033c0:	f9405be0 	ldr	x0, [sp, #176]
  4033c4:	39400001 	ldrb	w1, [x0]
  4033c8:	51010421 	sub	w1, w1, #0x41
  4033cc:	7100e43f 	cmp	w1, #0x39
  4033d0:	540003e8 	b.hi	0x40344c  // b.pmore
  4033d4:	91000401 	add	x1, x0, #0x1
  4033d8:	f9005be1 	str	x1, [sp, #176]
  4033dc:	39400001 	ldrb	w1, [x0]
  4033e0:	2a0503e0 	mov	w0, w5
  4033e4:	51010421 	sub	w1, w1, #0x41
  4033e8:	9b040800 	madd	x0, x0, x4, x2
  4033ec:	3861c801 	ldrb	w1, [x0, w1, sxtw]
  4033f0:	51000420 	sub	w0, w1, #0x1
  4033f4:	71001c1f 	cmp	w0, #0x7
  4033f8:	54000a09 	b.ls	0x403538  // b.plast
  4033fc:	34000281 	cbz	w1, 0x40344c
  403400:	71006c3f 	cmp	w1, #0x1b
  403404:	540009e1 	b.ne	0x403540  // b.any
  403408:	36f8022a 	tbz	w10, #31, 0x40344c
  40340c:	b5000c95 	cbnz	x21, 0x40359c
  403410:	17ffff6f 	b	0x4031cc
  403414:	91000800 	add	x0, x0, #0x2
  403418:	910004c6 	add	x6, x6, #0x1
  40341c:	f9005be0 	str	x0, [sp, #176]
  403420:	17ffff84 	b	0x403230
  403424:	91000442 	add	x2, x2, #0x1
  403428:	1280000a 	mov	w10, #0xffffffff            	// #-1
  40342c:	17ffffa1 	b	0x4032b0
  403430:	91000421 	add	x1, x1, #0x1
  403434:	1ac020a0 	lsl	w0, w5, w0
  403438:	2a00037b 	orr	w27, w27, w0
  40343c:	f9005be1 	str	x1, [sp, #176]
  403440:	17ffffa1 	b	0x4032c4
  403444:	b94067e0 	ldr	w0, [sp, #100]
  403448:	340000c0 	cbz	w0, 0x403460
  40344c:	940004f0 	bl	0x40480c
  403450:	528002c1 	mov	w1, #0x16                  	// #22
  403454:	b9000001 	str	w1, [x0]
  403458:	12800016 	mov	w22, #0xffffffff            	// #-1
  40345c:	14000043 	b	0x403568
  403460:	b4000255 	cbz	x21, 0x4034a8
  403464:	b9401ae0 	ldr	w0, [x23, #24]
  403468:	f94002e2 	ldr	x2, [x23]
  40346c:	37f80100 	tbnz	w0, #31, 0x40348c
  403470:	91002c40 	add	x0, x2, #0xb
  403474:	927df000 	and	x0, x0, #0xfffffffffffffff8
  403478:	f90002e0 	str	x0, [x23]
  40347c:	b9400053 	ldr	w19, [x2]
  403480:	91000421 	add	x1, x1, #0x1
  403484:	f9005be1 	str	x1, [sp, #176]
  403488:	17ffffac 	b	0x403338
  40348c:	11002003 	add	w3, w0, #0x8
  403490:	b9001ae3 	str	w3, [x23, #24]
  403494:	7100007f 	cmp	w3, #0x0
  403498:	54fffecc 	b.gt	0x403470
  40349c:	f94006e2 	ldr	x2, [x23, #8]
  4034a0:	8b20c042 	add	x2, x2, w0, sxtw
  4034a4:	17fffff6 	b	0x40347c
  4034a8:	2a1803f3 	mov	w19, w24
  4034ac:	17fffff5 	b	0x403480
  4034b0:	9102c3e0 	add	x0, sp, #0xb0
  4034b4:	97fffb89 	bl	0x4022d8
  4034b8:	2a0003f3 	mov	w19, w0
  4034bc:	36fff440 	tbz	w0, #31, 0x403344
  4034c0:	14000134 	b	0x403990
  4034c4:	b94067e0 	ldr	w0, [sp, #100]
  4034c8:	35fffc20 	cbnz	w0, 0x40344c
  4034cc:	b4000115 	cbz	x21, 0x4034ec
  4034d0:	b9401ae2 	ldr	w2, [x23, #24]
  4034d4:	f94002e0 	ldr	x0, [x23]
  4034d8:	37f800e2 	tbnz	w2, #31, 0x4034f4
  4034dc:	91002c02 	add	x2, x0, #0xb
  4034e0:	927df042 	and	x2, x2, #0xfffffffffffffff8
  4034e4:	f90002e2 	str	x2, [x23]
  4034e8:	b9400018 	ldr	w24, [x0]
  4034ec:	91000821 	add	x1, x1, #0x2
  4034f0:	17ffffad 	b	0x4033a4
  4034f4:	11002043 	add	w3, w2, #0x8
  4034f8:	b9001ae3 	str	w3, [x23, #24]
  4034fc:	7100007f 	cmp	w3, #0x0
  403500:	54fffeec 	b.gt	0x4034dc
  403504:	f94006e0 	ldr	x0, [x23, #8]
  403508:	8b22c000 	add	x0, x0, w2, sxtw
  40350c:	17fffff7 	b	0x4034e8
  403510:	91000421 	add	x1, x1, #0x1
  403514:	9102c3e0 	add	x0, sp, #0xb0
  403518:	5280003a 	mov	w26, #0x1                   	// #1
  40351c:	f9005be1 	str	x1, [sp, #176]
  403520:	97fffb6e 	bl	0x4022d8
  403524:	2a0003f8 	mov	w24, w0
  403528:	17ffffa2 	b	0x4033b0
  40352c:	2a1803fa 	mov	w26, w24
  403530:	12800018 	mov	w24, #0xffffffff            	// #-1
  403534:	17ffff9f 	b	0x4033b0
  403538:	2a0103e5 	mov	w5, w1
  40353c:	17ffffa1 	b	0x4033c0
  403540:	37f8010a 	tbnz	w10, #31, 0x403560
  403544:	f94037e0 	ldr	x0, [sp, #104]
  403548:	b82ad801 	str	w1, [x0, w10, sxtw #2]
  40354c:	f9403fe0 	ldr	x0, [sp, #120]
  403550:	8b2ad001 	add	x1, x0, w10, sxtw #4
  403554:	a9400420 	ldp	x0, x1, [x1]
  403558:	a90c07e0 	stp	x0, x1, [sp, #192]
  40355c:	17ffffac 	b	0x40340c
  403560:	b5000155 	cbnz	x21, 0x403588
  403564:	52800016 	mov	w22, #0x0                   	// #0
  403568:	2a1603e0 	mov	w0, w22
  40356c:	a9415bf5 	ldp	x21, x22, [sp, #16]
  403570:	a94263f7 	ldp	x23, x24, [sp, #32]
  403574:	a9436bf9 	ldp	x25, x26, [sp, #48]
  403578:	a94473fb 	ldp	x27, x28, [sp, #64]
  40357c:	f9402bfe 	ldr	x30, [sp, #80]
  403580:	a8d153f3 	ldp	x19, x20, [sp], #272
  403584:	d65f03c0 	ret
  403588:	aa1703e2 	mov	x2, x23
  40358c:	910303e0 	add	x0, sp, #0xc0
  403590:	b90093e5 	str	w5, [sp, #144]
  403594:	97fffab6 	bl	0x40206c
  403598:	b94093e5 	ldr	w5, [sp, #144]
  40359c:	f9405be0 	ldr	x0, [sp, #176]
  4035a0:	385ff004 	ldurb	w4, [x0, #-1]
  4035a4:	340000a5 	cbz	w5, 0x4035b8
  4035a8:	12000c80 	and	w0, w4, #0xf
  4035ac:	71000c1f 	cmp	w0, #0x3
  4035b0:	54000041 	b.ne	0x4035b8  // b.any
  4035b4:	121a7884 	and	w4, w4, #0xffffffdf
  4035b8:	3668005b 	tbz	w27, #13, 0x4035c0
  4035bc:	120f7b7b 	and	w27, w27, #0xfffeffff
  4035c0:	51010481 	sub	w1, w4, #0x41
  4035c4:	7100dc3f 	cmp	w1, #0x37
  4035c8:	540021e8 	b.hi	0x403a04  // b.pmore
  4035cc:	90000020 	adrp	x0, 0x407000
  4035d0:	9135c000 	add	x0, x0, #0xd70
  4035d4:	78615800 	ldrh	w0, [x0, w1, uxtw #1]
  4035d8:	10000061 	adr	x1, 0x4035e4
  4035dc:	8b20a820 	add	x0, x1, w0, sxth #2
  4035e0:	d61f0000 	br	x0
  4035e4:	71001cbf 	cmp	w5, #0x7
  4035e8:	54001ce8 	b.hi	0x403984  // b.pmore
  4035ec:	90000020 	adrp	x0, 0x407000
  4035f0:	91378000 	add	x0, x0, #0xde0
  4035f4:	78655800 	ldrh	w0, [x0, w5, uxtw #1]
  4035f8:	10000061 	adr	x1, 0x403604
  4035fc:	8b20a820 	add	x0, x1, w0, sxth #2
  403600:	d61f0000 	br	x0
  403604:	f94063e0 	ldr	x0, [sp, #192]
  403608:	b9000016 	str	w22, [x0]
  40360c:	17fffef0 	b	0x4031cc
  403610:	f94063e0 	ldr	x0, [sp, #192]
  403614:	79000016 	strh	w22, [x0]
  403618:	17fffeed 	b	0x4031cc
  40361c:	f94063e0 	ldr	x0, [sp, #192]
  403620:	39000016 	strb	w22, [x0]
  403624:	17fffeea 	b	0x4031cc
  403628:	f94063e1 	ldr	x1, [sp, #192]
  40362c:	93407ec0 	sxtw	x0, w22
  403630:	f9000020 	str	x0, [x1]
  403634:	17fffee6 	b	0x4031cc
  403638:	7100431f 	cmp	w24, #0x10
  40363c:	52800200 	mov	w0, #0x10                  	// #16
  403640:	321d037b 	orr	w27, w27, #0x8
  403644:	1a802318 	csel	w24, w24, w0, cs  // cs = hs, nlast
  403648:	52800f04 	mov	w4, #0x78                  	// #120
  40364c:	f9403be1 	ldr	x1, [sp, #112]
  403650:	121b0085 	and	w5, w4, #0x20
  403654:	f94063e9 	ldr	x9, [sp, #192]
  403658:	9100dc3c 	add	x28, x1, #0x37
  40365c:	90000021 	adrp	x1, 0x407000
  403660:	913fc021 	add	x1, x1, #0xff0
  403664:	aa0903e0 	mov	x0, x9
  403668:	b50002e0 	cbnz	x0, 0x4036c4
  40366c:	90000025 	adrp	x5, 0x407000
  403670:	b40004e9 	cbz	x9, 0x40370c
  403674:	361804db 	tbz	w27, #3, 0x40370c
  403678:	d3441c84 	ubfx	x4, x4, #4, #4
  40367c:	91357ca5 	add	x5, x5, #0xd5f
  403680:	8b050085 	add	x5, x4, x5
  403684:	52800054 	mov	w20, #0x2                   	// #2
  403688:	6a587f5f 	tst	w26, w24, lsr #31
  40368c:	54001821 	b.ne	0x403990  // b.any
  403690:	3400005a 	cbz	w26, 0x403698
  403694:	120f7b7b 	and	w27, w27, #0xfffeffff
  403698:	f94063e1 	ldr	x1, [sp, #192]
  40369c:	b5000041 	cbnz	x1, 0x4036a4
  4036a0:	34001b98 	cbz	w24, 0x403a10
  4036a4:	f100003f 	cmp	x1, #0x0
  4036a8:	cb1c0320 	sub	x0, x25, x28
  4036ac:	9a801400 	cinc	x0, x0, eq  // eq = none
  4036b0:	93407f01 	sxtw	x1, w24
  4036b4:	eb38c01f 	cmp	x0, w24, sxtw
  4036b8:	9a81a018 	csel	x24, x0, x1, ge  // ge = tcont
  4036bc:	aa1903e2 	mov	x2, x25
  4036c0:	1400003b 	b	0x4037ac
  4036c4:	92400c02 	and	x2, x0, #0xf
  4036c8:	d344fc00 	lsr	x0, x0, #4
  4036cc:	38626822 	ldrb	w2, [x1, x2]
  4036d0:	2a0200a2 	orr	w2, w5, w2
  4036d4:	381fff82 	strb	w2, [x28, #-1]!
  4036d8:	17ffffe4 	b	0x403668
  4036dc:	f9403be1 	ldr	x1, [sp, #112]
  4036e0:	f94063e0 	ldr	x0, [sp, #192]
  4036e4:	9100dc3c 	add	x28, x1, #0x37
  4036e8:	b5000160 	cbnz	x0, 0x403714
  4036ec:	90000025 	adrp	x5, 0x407000
  4036f0:	361800fb 	tbz	w27, #3, 0x40370c
  4036f4:	f9403be0 	ldr	x0, [sp, #112]
  4036f8:	9100dc00 	add	x0, x0, #0x37
  4036fc:	cb1c0000 	sub	x0, x0, x28
  403700:	eb38c01f 	cmp	x0, w24, sxtw
  403704:	5400004b 	b.lt	0x40370c  // b.tstop
  403708:	11000418 	add	w24, w0, #0x1
  40370c:	91357ca5 	add	x5, x5, #0xd5f
  403710:	17ffffde 	b	0x403688
  403714:	12000801 	and	w1, w0, #0x7
  403718:	d343fc00 	lsr	x0, x0, #3
  40371c:	1100c021 	add	w1, w1, #0x30
  403720:	381fff81 	strb	w1, [x28, #-1]!
  403724:	17fffff1 	b	0x4036e8
  403728:	f94063e0 	ldr	x0, [sp, #192]
  40372c:	b6f801a0 	tbz	x0, #63, 0x403760
  403730:	cb0003e0 	neg	x0, x0
  403734:	52800034 	mov	w20, #0x1                   	// #1
  403738:	f90063e0 	str	x0, [sp, #192]
  40373c:	90000025 	adrp	x5, 0x407000
  403740:	91357ca5 	add	x5, x5, #0xd5f
  403744:	f94063e0 	ldr	x0, [sp, #192]
  403748:	aa1903e1 	mov	x1, x25
  40374c:	f9004be5 	str	x5, [sp, #144]
  403750:	97fffad7 	bl	0x4022ac
  403754:	aa0003fc 	mov	x28, x0
  403758:	f9404be5 	ldr	x5, [sp, #144]
  40375c:	17ffffcb 	b	0x403688
  403760:	375800db 	tbnz	w27, #11, 0x403778
  403764:	3607fedb 	tbz	w27, #0, 0x40373c
  403768:	90000025 	adrp	x5, 0x407000
  40376c:	52800034 	mov	w20, #0x1                   	// #1
  403770:	913584a5 	add	x5, x5, #0xd61
  403774:	17fffff4 	b	0x403744
  403778:	90000025 	adrp	x5, 0x407000
  40377c:	52800034 	mov	w20, #0x1                   	// #1
  403780:	913580a5 	add	x5, x5, #0xd60
  403784:	17fffff0 	b	0x403744
  403788:	f94063e0 	ldr	x0, [sp, #192]
  40378c:	39043be0 	strb	w0, [sp, #270]
  403790:	f9403be0 	ldr	x0, [sp, #112]
  403794:	90000025 	adrp	x5, 0x407000
  403798:	120f7b7b 	and	w27, w27, #0xfffeffff
  40379c:	91357ca5 	add	x5, x5, #0xd5f
  4037a0:	aa1903e2 	mov	x2, x25
  4037a4:	9100d81c 	add	x28, x0, #0x36
  4037a8:	52800038 	mov	w24, #0x1                   	// #1
  4037ac:	cb1c0049 	sub	x9, x2, x28
  4037b0:	a90917e9 	stp	x9, x5, [sp, #144]
  4037b4:	eb38c13f 	cmp	x9, w24, sxtw
  4037b8:	1a89d318 	csel	w24, w24, w9, le
  4037bc:	12b00000 	mov	w0, #0x7fffffff            	// #2147483647
  4037c0:	4b140000 	sub	w0, w0, w20
  4037c4:	6b18001f 	cmp	w0, w24
  4037c8:	54000e4b 	b.lt	0x403990  // b.tstop
  4037cc:	0b14031a 	add	w26, w24, w20
  4037d0:	b94083e0 	ldr	w0, [sp, #128]
  4037d4:	6b13035f 	cmp	w26, w19
  4037d8:	1a93a353 	csel	w19, w26, w19, ge  // ge = tcont
  4037dc:	6b13001f 	cmp	w0, w19
  4037e0:	54000d8b 	b.lt	0x403990  // b.tstop
  4037e4:	2a1b03e4 	mov	w4, w27
  4037e8:	2a1a03e3 	mov	w3, w26
  4037ec:	2a1303e2 	mov	w2, w19
  4037f0:	aa1503e0 	mov	x0, x21
  4037f4:	52800401 	mov	w1, #0x20                  	// #32
  4037f8:	97fffad9 	bl	0x40235c
  4037fc:	f9404fe5 	ldr	x5, [sp, #152]
  403800:	93407e82 	sxtw	x2, w20
  403804:	aa1503e0 	mov	x0, x21
  403808:	2a1303f4 	mov	w20, w19
  40380c:	aa0503e1 	mov	x1, x5
  403810:	97fffacb 	bl	0x40233c
  403814:	52100364 	eor	w4, w27, #0x10000
  403818:	2a1a03e3 	mov	w3, w26
  40381c:	2a1303e2 	mov	w2, w19
  403820:	aa1503e0 	mov	x0, x21
  403824:	52800601 	mov	w1, #0x30                  	// #48
  403828:	97fffacd 	bl	0x40235c
  40382c:	f9404be9 	ldr	x9, [sp, #144]
  403830:	2a1803e2 	mov	w2, w24
  403834:	aa1503e0 	mov	x0, x21
  403838:	52800004 	mov	w4, #0x0                   	// #0
  40383c:	2a0903e3 	mov	w3, w9
  403840:	52800601 	mov	w1, #0x30                  	// #48
  403844:	f90043e9 	str	x9, [sp, #128]
  403848:	97fffac5 	bl	0x40235c
  40384c:	f94043e9 	ldr	x9, [sp, #128]
  403850:	aa1c03e1 	mov	x1, x28
  403854:	aa1503e0 	mov	x0, x21
  403858:	aa0903e2 	mov	x2, x9
  40385c:	97fffab8 	bl	0x40233c
  403860:	52130364 	eor	w4, w27, #0x2000
  403864:	2a1a03e3 	mov	w3, w26
  403868:	2a1303e2 	mov	w2, w19
  40386c:	aa1503e0 	mov	x0, x21
  403870:	52800401 	mov	w1, #0x20                  	// #32
  403874:	97fffaba 	bl	0x40235c
  403878:	17fffe55 	b	0x4031cc
  40387c:	940003e4 	bl	0x40480c
  403880:	b9400000 	ldr	w0, [x0]
  403884:	940003ef 	bl	0x404840
  403888:	aa0003fc 	mov	x28, x0
  40388c:	7100031f 	cmp	w24, #0x0
  403890:	12b00001 	mov	w1, #0x7fffffff            	// #2147483647
  403894:	1a81a301 	csel	w1, w24, w1, ge  // ge = tcont
  403898:	aa1c03e0 	mov	x0, x28
  40389c:	93407c21 	sxtw	x1, w1
  4038a0:	94000212 	bl	0x4040e8
  4038a4:	8b000382 	add	x2, x28, x0
  4038a8:	36f80078 	tbz	w24, #31, 0x4038b4
  4038ac:	38606b81 	ldrb	w1, [x28, x0]
  4038b0:	35000701 	cbnz	w1, 0x403990
  4038b4:	90000025 	adrp	x5, 0x407000
  4038b8:	2a0003f8 	mov	w24, w0
  4038bc:	120f7b7b 	and	w27, w27, #0xfffeffff
  4038c0:	91357ca5 	add	x5, x5, #0xd5f
  4038c4:	17ffffba 	b	0x4037ac
  4038c8:	f94063fc 	ldr	x28, [sp, #192]
  4038cc:	b5fffe1c 	cbnz	x28, 0x40388c
  4038d0:	90000027 	adrp	x7, 0x407000
  4038d4:	9135a4fc 	add	x28, x7, #0xd69
  4038d8:	17ffffed 	b	0x40388c
  4038dc:	f94063e0 	ldr	x0, [sp, #192]
  4038e0:	12800018 	mov	w24, #0xffffffff            	// #-1
  4038e4:	29177fe0 	stp	w0, wzr, [sp, #184]
  4038e8:	9102e3e0 	add	x0, sp, #0xb8
  4038ec:	f90063e0 	str	x0, [sp, #192]
  4038f0:	f94063f4 	ldr	x20, [sp, #192]
  4038f4:	93407f18 	sxtw	x24, w24
  4038f8:	d280001a 	mov	x26, #0x0                   	// #0
  4038fc:	eb1a031f 	cmp	x24, x26
  403900:	54000169 	b.ls	0x40392c  // b.plast
  403904:	b9400281 	ldr	w1, [x20]
  403908:	34000121 	cbz	w1, 0x40392c
  40390c:	f94047e0 	ldr	x0, [sp, #136]
  403910:	91001294 	add	x20, x20, #0x4
  403914:	9400041c 	bl	0x404984
  403918:	37ffda00 	tbnz	w0, #31, 0x403458
  40391c:	cb1a0301 	sub	x1, x24, x26
  403920:	93407c02 	sxtw	x2, w0
  403924:	eb20c03f 	cmp	x1, w0, sxtw
  403928:	540003a2 	b.cs	0x40399c  // b.hs, b.nlast
  40392c:	b2407be0 	mov	x0, #0x7fffffff            	// #2147483647
  403930:	eb00035f 	cmp	x26, x0
  403934:	540002e8 	b.hi	0x403990  // b.pmore
  403938:	2a1b03e4 	mov	w4, w27
  40393c:	2a1a03e3 	mov	w3, w26
  403940:	2a1303e2 	mov	w2, w19
  403944:	aa1503e0 	mov	x0, x21
  403948:	52800401 	mov	w1, #0x20                  	// #32
  40394c:	97fffa84 	bl	0x40235c
  403950:	f94063fc 	ldr	x28, [sp, #192]
  403954:	2a1a03f4 	mov	w20, w26
  403958:	d2800018 	mov	x24, #0x0                   	// #0
  40395c:	eb18035f 	cmp	x26, x24
  403960:	54000228 	b.hi	0x4039a4  // b.pmore
  403964:	2a1403e3 	mov	w3, w20
  403968:	52130364 	eor	w4, w27, #0x2000
  40396c:	2a1303e2 	mov	w2, w19
  403970:	aa1503e0 	mov	x0, x21
  403974:	52800401 	mov	w1, #0x20                  	// #32
  403978:	97fffa79 	bl	0x40235c
  40397c:	6b14027f 	cmp	w19, w20
  403980:	1a94a274 	csel	w20, w19, w20, ge  // ge = tcont
  403984:	b94083e0 	ldr	w0, [sp, #128]
  403988:	6b14001f 	cmp	w0, w20
  40398c:	54ffc20a 	b.ge	0x4031cc  // b.tcont
  403990:	9400039f 	bl	0x40480c
  403994:	52800961 	mov	w1, #0x4b                  	// #75
  403998:	17fffeaf 	b	0x403454
  40399c:	8b02035a 	add	x26, x26, x2
  4039a0:	17ffffd7 	b	0x4038fc
  4039a4:	b9400381 	ldr	w1, [x28]
  4039a8:	34fffde1 	cbz	w1, 0x403964
  4039ac:	f94047e0 	ldr	x0, [sp, #136]
  4039b0:	9100139c 	add	x28, x28, #0x4
  4039b4:	940003f4 	bl	0x404984
  4039b8:	8b20c318 	add	x24, x24, w0, sxtw
  4039bc:	93407c02 	sxtw	x2, w0
  4039c0:	eb1a031f 	cmp	x24, x26
  4039c4:	54fffd08 	b.hi	0x403964  // b.pmore
  4039c8:	f94047e1 	ldr	x1, [sp, #136]
  4039cc:	aa1503e0 	mov	x0, x21
  4039d0:	97fffa5b 	bl	0x40233c
  4039d4:	17ffffe2 	b	0x40395c
  4039d8:	6a587f5f 	tst	w26, w24, lsr #31
  4039dc:	54fffda1 	b.ne	0x403990  // b.any
  4039e0:	3dc033e0 	ldr	q0, [sp, #192]
  4039e4:	2a1b03e3 	mov	w3, w27
  4039e8:	2a1803e2 	mov	w2, w24
  4039ec:	2a1303e1 	mov	w1, w19
  4039f0:	aa1503e0 	mov	x0, x21
  4039f4:	97fffa81 	bl	0x4023f8
  4039f8:	2a0003f4 	mov	w20, w0
  4039fc:	36fffc40 	tbz	w0, #31, 0x403984
  403a00:	17ffffe4 	b	0x403990
  403a04:	90000025 	adrp	x5, 0x407000
  403a08:	91357ca5 	add	x5, x5, #0xd5f
  403a0c:	17ffff2c 	b	0x4036bc
  403a10:	aa1903e2 	mov	x2, x25
  403a14:	aa1903fc 	mov	x28, x25
  403a18:	17ffff65 	b	0x4037ac
  403a1c:	f9403fe0 	ldr	x0, [sp, #120]
  403a20:	aa1703e2 	mov	x2, x23
  403a24:	8b131000 	add	x0, x0, x19, lsl #4
  403a28:	91000673 	add	x19, x19, #0x1
  403a2c:	97fff990 	bl	0x40206c
  403a30:	f1002a7f 	cmp	x19, #0xa
  403a34:	54ffbdc1 	b.ne	0x4031ec  // b.any
  403a38:	52800036 	mov	w22, #0x1                   	// #1
  403a3c:	17fffecb 	b	0x403568
  403a40:	a9a753f3 	stp	x19, x20, [sp, #-400]!
  403a44:	aa0003f3 	mov	x19, x0
  403a48:	aa0103f4 	mov	x20, x1
  403a4c:	a9401444 	ldp	x4, x5, [x2]
  403a50:	a90263f7 	stp	x23, x24, [sp, #32]
  403a54:	910163f8 	add	x24, sp, #0x58
  403a58:	a9410c42 	ldp	x2, x3, [x2, #16]
  403a5c:	a9036bf9 	stp	x25, x26, [sp, #48]
  403a60:	9101e3fa 	add	x26, sp, #0x78
  403a64:	9103c3f9 	add	x25, sp, #0xf0
  403a68:	d2800000 	mov	x0, #0x0                   	// #0
  403a6c:	a9015bf5 	stp	x21, x22, [sp, #16]
  403a70:	f90023fe 	str	x30, [sp, #64]
  403a74:	a90597e4 	stp	x4, x5, [sp, #88]
  403a78:	aa1a03e4 	mov	x4, x26
  403a7c:	a9068fe2 	stp	x2, x3, [sp, #104]
  403a80:	aa1903e3 	mov	x3, x25
  403a84:	aa1803e2 	mov	x2, x24
  403a88:	a907ffff 	stp	xzr, xzr, [sp, #120]
  403a8c:	a908ffff 	stp	xzr, xzr, [sp, #136]
  403a90:	f9004fff 	str	xzr, [sp, #152]
  403a94:	97fffdbc 	bl	0x403184
  403a98:	37f80860 	tbnz	w0, #31, 0x403ba4
  403a9c:	b9408e60 	ldr	w0, [x19, #140]
  403aa0:	37f80720 	tbnz	w0, #31, 0x403b84
  403aa4:	aa1303e0 	mov	x0, x19
  403aa8:	940003ee 	bl	0x404a60
  403aac:	2a0003f6 	mov	w22, w0
  403ab0:	b9400260 	ldr	w0, [x19]
  403ab4:	b9408a61 	ldr	w1, [x19, #136]
  403ab8:	121b0017 	and	w23, w0, #0x20
  403abc:	7100003f 	cmp	w1, #0x0
  403ac0:	5400006c 	b.gt	0x403acc
  403ac4:	121a7800 	and	w0, w0, #0xffffffdf
  403ac8:	b9000260 	str	w0, [x19]
  403acc:	f9403260 	ldr	x0, [x19, #96]
  403ad0:	b50005e0 	cbnz	x0, 0x403b8c
  403ad4:	910283e0 	add	x0, sp, #0xa0
  403ad8:	a9027e7f 	stp	xzr, xzr, [x19, #32]
  403adc:	f9001e7f 	str	xzr, [x19, #56]
  403ae0:	f9402e75 	ldr	x21, [x19, #88]
  403ae4:	f9002e60 	str	x0, [x19, #88]
  403ae8:	d2800a00 	mov	x0, #0x50                  	// #80
  403aec:	f9003260 	str	x0, [x19, #96]
  403af0:	aa1303e0 	mov	x0, x19
  403af4:	940004c5 	bl	0x404e08
  403af8:	35000520 	cbnz	w0, 0x403b9c
  403afc:	aa1403e1 	mov	x1, x20
  403b00:	aa1a03e4 	mov	x4, x26
  403b04:	aa1903e3 	mov	x3, x25
  403b08:	aa1803e2 	mov	x2, x24
  403b0c:	aa1303e0 	mov	x0, x19
  403b10:	97fffd9d 	bl	0x403184
  403b14:	2a0003f4 	mov	w20, w0
  403b18:	b4000195 	cbz	x21, 0x403b48
  403b1c:	f9402663 	ldr	x3, [x19, #72]
  403b20:	aa1303e0 	mov	x0, x19
  403b24:	d2800002 	mov	x2, #0x0                   	// #0
  403b28:	d2800001 	mov	x1, #0x0                   	// #0
  403b2c:	d63f0060 	blr	x3
  403b30:	f9001e7f 	str	xzr, [x19, #56]
  403b34:	f9401660 	ldr	x0, [x19, #40]
  403b38:	a9027e7f 	stp	xzr, xzr, [x19, #32]
  403b3c:	f100001f 	cmp	x0, #0x0
  403b40:	a905fe75 	stp	x21, xzr, [x19, #88]
  403b44:	5a9f1294 	csinv	w20, w20, wzr, ne  // ne = any
  403b48:	b9400260 	ldr	w0, [x19]
  403b4c:	2a0002f7 	orr	w23, w23, w0
  403b50:	b9000277 	str	w23, [x19]
  403b54:	f27b001f 	tst	x0, #0x20
  403b58:	5a9f0294 	csinv	w20, w20, wzr, eq  // eq = none
  403b5c:	34000076 	cbz	w22, 0x403b68
  403b60:	aa1303e0 	mov	x0, x19
  403b64:	940003eb 	bl	0x404b10
  403b68:	2a1403e0 	mov	w0, w20
  403b6c:	a9415bf5 	ldp	x21, x22, [sp, #16]
  403b70:	a94263f7 	ldp	x23, x24, [sp, #32]
  403b74:	a9436bf9 	ldp	x25, x26, [sp, #48]
  403b78:	f94023fe 	ldr	x30, [sp, #64]
  403b7c:	a8d953f3 	ldp	x19, x20, [sp], #400
  403b80:	d65f03c0 	ret
  403b84:	52800016 	mov	w22, #0x0                   	// #0
  403b88:	17ffffca 	b	0x403ab0
  403b8c:	f9401275 	ldr	x21, [x19, #32]
  403b90:	b4fffb15 	cbz	x21, 0x403af0
  403b94:	d2800015 	mov	x21, #0x0                   	// #0
  403b98:	17ffffd9 	b	0x403afc
  403b9c:	12800014 	mov	w20, #0xffffffff            	// #-1
  403ba0:	17ffffde 	b	0x403b18
  403ba4:	12800014 	mov	w20, #0xffffffff            	// #-1
  403ba8:	17fffff0 	b	0x403b68
  403bac:	d503201f 	nop
  403bb0:	8b020024 	add	x4, x1, x2
  403bb4:	8b020005 	add	x5, x0, x2
  403bb8:	f102005f 	cmp	x2, #0x80
  403bbc:	540007a8 	b.hi	0x403cb0  // b.pmore
  403bc0:	f100805f 	cmp	x2, #0x20
  403bc4:	540003e8 	b.hi	0x403c40  // b.pmore
  403bc8:	f100405f 	cmp	x2, #0x10
  403bcc:	540000c3 	b.cc	0x403be4  // b.lo, b.ul, b.last
  403bd0:	a9401c26 	ldp	x6, x7, [x1]
  403bd4:	a97f348c 	ldp	x12, x13, [x4, #-16]
  403bd8:	a9001c06 	stp	x6, x7, [x0]
  403bdc:	a93f34ac 	stp	x12, x13, [x5, #-16]
  403be0:	d65f03c0 	ret
  403be4:	361800e2 	tbz	w2, #3, 0x403c00
  403be8:	f9400026 	ldr	x6, [x1]
  403bec:	f85f8087 	ldur	x7, [x4, #-8]
  403bf0:	f9000006 	str	x6, [x0]
  403bf4:	f81f80a7 	stur	x7, [x5, #-8]
  403bf8:	d65f03c0 	ret
  403bfc:	d503201f 	nop
  403c00:	361000c2 	tbz	w2, #2, 0x403c18
  403c04:	b9400026 	ldr	w6, [x1]
  403c08:	b85fc088 	ldur	w8, [x4, #-4]
  403c0c:	b9000006 	str	w6, [x0]
  403c10:	b81fc0a8 	stur	w8, [x5, #-4]
  403c14:	d65f03c0 	ret
  403c18:	b4000102 	cbz	x2, 0x403c38
  403c1c:	d341fc4e 	lsr	x14, x2, #1
  403c20:	39400026 	ldrb	w6, [x1]
  403c24:	385ff08a 	ldurb	w10, [x4, #-1]
  403c28:	386e6828 	ldrb	w8, [x1, x14]
  403c2c:	39000006 	strb	w6, [x0]
  403c30:	382e6808 	strb	w8, [x0, x14]
  403c34:	381ff0aa 	sturb	w10, [x5, #-1]
  403c38:	d65f03c0 	ret
  403c3c:	d503201f 	nop
  403c40:	a9401c26 	ldp	x6, x7, [x1]
  403c44:	a9412428 	ldp	x8, x9, [x1, #16]
  403c48:	a97e2c8a 	ldp	x10, x11, [x4, #-32]
  403c4c:	a97f348c 	ldp	x12, x13, [x4, #-16]
  403c50:	f101005f 	cmp	x2, #0x40
  403c54:	540000e8 	b.hi	0x403c70  // b.pmore
  403c58:	a9001c06 	stp	x6, x7, [x0]
  403c5c:	a9012408 	stp	x8, x9, [x0, #16]
  403c60:	a93e2caa 	stp	x10, x11, [x5, #-32]
  403c64:	a93f34ac 	stp	x12, x13, [x5, #-16]
  403c68:	d65f03c0 	ret
  403c6c:	d503201f 	nop
  403c70:	a9423c2e 	ldp	x14, x15, [x1, #32]
  403c74:	a9434430 	ldp	x16, x17, [x1, #48]
  403c78:	f101805f 	cmp	x2, #0x60
  403c7c:	540000a9 	b.ls	0x403c90  // b.plast
  403c80:	a97c0c82 	ldp	x2, x3, [x4, #-64]
  403c84:	a97d1081 	ldp	x1, x4, [x4, #-48]
  403c88:	a93c0ca2 	stp	x2, x3, [x5, #-64]
  403c8c:	a93d10a1 	stp	x1, x4, [x5, #-48]
  403c90:	a9001c06 	stp	x6, x7, [x0]
  403c94:	a9012408 	stp	x8, x9, [x0, #16]
  403c98:	a9023c0e 	stp	x14, x15, [x0, #32]
  403c9c:	a9034410 	stp	x16, x17, [x0, #48]
  403ca0:	a93e2caa 	stp	x10, x11, [x5, #-32]
  403ca4:	a93f34ac 	stp	x12, x13, [x5, #-16]
  403ca8:	d65f03c0 	ret
  403cac:	d503201f 	nop
  403cb0:	a940342c 	ldp	x12, x13, [x1]
  403cb4:	92400c0e 	and	x14, x0, #0xf
  403cb8:	927cec03 	and	x3, x0, #0xfffffffffffffff0
  403cbc:	cb0e0021 	sub	x1, x1, x14
  403cc0:	8b0e0042 	add	x2, x2, x14
  403cc4:	a9411c26 	ldp	x6, x7, [x1, #16]
  403cc8:	a900340c 	stp	x12, x13, [x0]
  403ccc:	a9422428 	ldp	x8, x9, [x1, #32]
  403cd0:	a9432c2a 	ldp	x10, x11, [x1, #48]
  403cd4:	a9c4342c 	ldp	x12, x13, [x1, #64]!
  403cd8:	f1024042 	subs	x2, x2, #0x90
  403cdc:	54000169 	b.ls	0x403d08  // b.plast
  403ce0:	a9011c66 	stp	x6, x7, [x3, #16]
  403ce4:	a9411c26 	ldp	x6, x7, [x1, #16]
  403ce8:	a9022468 	stp	x8, x9, [x3, #32]
  403cec:	a9422428 	ldp	x8, x9, [x1, #32]
  403cf0:	a9032c6a 	stp	x10, x11, [x3, #48]
  403cf4:	a9432c2a 	ldp	x10, x11, [x1, #48]
  403cf8:	a984346c 	stp	x12, x13, [x3, #64]!
  403cfc:	a9c4342c 	ldp	x12, x13, [x1, #64]!
  403d00:	f1010042 	subs	x2, x2, #0x40
  403d04:	54fffee8 	b.hi	0x403ce0  // b.pmore
  403d08:	a97c3c8e 	ldp	x14, x15, [x4, #-64]
  403d0c:	a9011c66 	stp	x6, x7, [x3, #16]
  403d10:	a97d1c86 	ldp	x6, x7, [x4, #-48]
  403d14:	a9022468 	stp	x8, x9, [x3, #32]
  403d18:	a97e2488 	ldp	x8, x9, [x4, #-32]
  403d1c:	a9032c6a 	stp	x10, x11, [x3, #48]
  403d20:	a97f2c8a 	ldp	x10, x11, [x4, #-16]
  403d24:	a904346c 	stp	x12, x13, [x3, #64]
  403d28:	a93c3cae 	stp	x14, x15, [x5, #-64]
  403d2c:	a93d1ca6 	stp	x6, x7, [x5, #-48]
  403d30:	a93e24a8 	stp	x8, x9, [x5, #-32]
  403d34:	a93f2caa 	stp	x10, x11, [x5, #-16]
  403d38:	d65f03c0 	ret
  403d3c:	d503201f 	nop
  403d40:	4e010c20 	dup	v0.16b, w1
  403d44:	8b020004 	add	x4, x0, x2
  403d48:	f101805f 	cmp	x2, #0x60
  403d4c:	540003a8 	b.hi	0x403dc0  // b.pmore
  403d50:	f100405f 	cmp	x2, #0x10
  403d54:	54000202 	b.cs	0x403d94  // b.hs, b.nlast
  403d58:	4e083c01 	mov	x1, v0.d[0]
  403d5c:	361800a2 	tbz	w2, #3, 0x403d70
  403d60:	f9000001 	str	x1, [x0]
  403d64:	f81f8081 	stur	x1, [x4, #-8]
  403d68:	d65f03c0 	ret
  403d6c:	d503201f 	nop
  403d70:	36100082 	tbz	w2, #2, 0x403d80
  403d74:	b9000001 	str	w1, [x0]
  403d78:	b81fc081 	stur	w1, [x4, #-4]
  403d7c:	d65f03c0 	ret
  403d80:	b4000082 	cbz	x2, 0x403d90
  403d84:	39000001 	strb	w1, [x0]
  403d88:	36080042 	tbz	w2, #1, 0x403d90
  403d8c:	781fe081 	sturh	w1, [x4, #-2]
  403d90:	d65f03c0 	ret
  403d94:	3d800000 	str	q0, [x0]
  403d98:	373000c2 	tbnz	w2, #6, 0x403db0
  403d9c:	3c9f0080 	stur	q0, [x4, #-16]
  403da0:	36280062 	tbz	w2, #5, 0x403dac
  403da4:	3d800400 	str	q0, [x0, #16]
  403da8:	3c9e0080 	stur	q0, [x4, #-32]
  403dac:	d65f03c0 	ret
  403db0:	3d800400 	str	q0, [x0, #16]
  403db4:	ad010000 	stp	q0, q0, [x0, #32]
  403db8:	ad3f0080 	stp	q0, q0, [x4, #-32]
  403dbc:	d65f03c0 	ret
  403dc0:	12001c21 	and	w1, w1, #0xff
  403dc4:	927cec03 	and	x3, x0, #0xfffffffffffffff0
  403dc8:	3d800000 	str	q0, [x0]
  403dcc:	f102805f 	cmp	x2, #0xa0
  403dd0:	7a402820 	ccmp	w1, #0x0, #0x0, cs  // cs = hs, nlast
  403dd4:	54000241 	b.ne	0x403e1c  // b.any
  403dd8:	d53b00e5 	mrs	x5, dczid_el0
  403ddc:	924010a5 	and	x5, x5, #0x1f
  403de0:	f10010bf 	cmp	x5, #0x4
  403de4:	540001c1 	b.ne	0x403e1c  // b.any
  403de8:	3d800460 	str	q0, [x3, #16]
  403dec:	ad010060 	stp	q0, q0, [x3, #32]
  403df0:	927ae463 	and	x3, x3, #0xffffffffffffffc0
  403df4:	cb030082 	sub	x2, x4, x3
  403df8:	d1020042 	sub	x2, x2, #0x80
  403dfc:	d503201f 	nop
  403e00:	91010063 	add	x3, x3, #0x40
  403e04:	d50b7423 	dc	zva, x3
  403e08:	f1010042 	subs	x2, x2, #0x40
  403e0c:	54ffffa8 	b.hi	0x403e00  // b.pmore
  403e10:	ad3e0080 	stp	q0, q0, [x4, #-64]
  403e14:	ad3f0080 	stp	q0, q0, [x4, #-32]
  403e18:	d65f03c0 	ret
  403e1c:	cb030082 	sub	x2, x4, x3
  403e20:	d1004063 	sub	x3, x3, #0x10
  403e24:	d1014042 	sub	x2, x2, #0x50
  403e28:	ad010060 	stp	q0, q0, [x3, #32]
  403e2c:	ad820060 	stp	q0, q0, [x3, #64]!
  403e30:	f1010042 	subs	x2, x2, #0x40
  403e34:	54ffffa8 	b.hi	0x403e28  // b.pmore
  403e38:	ad3e0080 	stp	q0, q0, [x4, #-64]
  403e3c:	ad3f0080 	stp	q0, q0, [x4, #-32]
  403e40:	d65f03c0 	ret
  403e44:	d503201f 	nop
  403e48:	aa0003e3 	mov	x3, x0
  403e4c:	12001c21 	and	w1, w1, #0xff
  403e50:	f240081f 	tst	x0, #0x7
  403e54:	54000120 	b.eq	0x403e78  // b.none
  403e58:	b4000522 	cbz	x2, 0x403efc
  403e5c:	39400060 	ldrb	w0, [x3]
  403e60:	6b01001f 	cmp	w0, w1
  403e64:	54000380 	b.eq	0x403ed4  // b.none
  403e68:	91000463 	add	x3, x3, #0x1
  403e6c:	d1000442 	sub	x2, x2, #0x1
  403e70:	f240087f 	tst	x3, #0x7
  403e74:	54ffff21 	b.ne	0x403e58  // b.any
  403e78:	d2800000 	mov	x0, #0x0                   	// #0
  403e7c:	b40003e2 	cbz	x2, 0x403ef8
  403e80:	39400060 	ldrb	w0, [x3]
  403e84:	6b01001f 	cmp	w0, w1
  403e88:	54000260 	b.eq	0x403ed4  // b.none
  403e8c:	93407c25 	sxtw	x5, w1
  403e90:	b200c3e0 	mov	x0, #0x101010101010101     	// #72340172838076673
  403e94:	b207dbe6 	mov	x6, #0xfefefefefefefefe    	// #-72340172838076674
  403e98:	f1001c5f 	cmp	x2, #0x7
  403e9c:	f29fdfe6 	movk	x6, #0xfeff
  403ea0:	9b007ca5 	mul	x5, x5, x0
  403ea4:	540000c8 	b.hi	0x403ebc  // b.pmore
  403ea8:	1400000b 	b	0x403ed4
  403eac:	d1002042 	sub	x2, x2, #0x8
  403eb0:	91002063 	add	x3, x3, #0x8
  403eb4:	f1001c5f 	cmp	x2, #0x7
  403eb8:	54000269 	b.ls	0x403f04  // b.plast
  403ebc:	f9400060 	ldr	x0, [x3]
  403ec0:	ca0000a0 	eor	x0, x5, x0
  403ec4:	8b060004 	add	x4, x0, x6
  403ec8:	8a200080 	bic	x0, x4, x0
  403ecc:	f201c01f 	tst	x0, #0x8080808080808080
  403ed0:	54fffee0 	b.eq	0x403eac  // b.none
  403ed4:	aa0303e0 	mov	x0, x3
  403ed8:	8b020063 	add	x3, x3, x2
  403edc:	14000004 	b	0x403eec
  403ee0:	91000400 	add	x0, x0, #0x1
  403ee4:	eb03001f 	cmp	x0, x3
  403ee8:	540000a0 	b.eq	0x403efc  // b.none
  403eec:	39400002 	ldrb	w2, [x0]
  403ef0:	6b01005f 	cmp	w2, w1
  403ef4:	54ffff61 	b.ne	0x403ee0  // b.any
  403ef8:	d65f03c0 	ret
  403efc:	d2800000 	mov	x0, #0x0                   	// #0
  403f00:	d65f03c0 	ret
  403f04:	d2800000 	mov	x0, #0x0                   	// #0
  403f08:	b5fffe62 	cbnz	x2, 0x403ed4
  403f0c:	d65f03c0 	ret
  403f10:	a9bf7bf3 	stp	x19, x30, [sp, #-16]!
  403f14:	2a0103f3 	mov	w19, w1
  403f18:	94000006 	bl	0x403f30
  403f1c:	39400001 	ldrb	w1, [x0]
  403f20:	6b33003f 	cmp	w1, w19, uxtb
  403f24:	9a9f0000 	csel	x0, x0, xzr, eq  // eq = none
  403f28:	a8c17bf3 	ldp	x19, x30, [sp], #16
  403f2c:	d65f03c0 	ret
  403f30:	a9bf7bf3 	stp	x19, x30, [sp, #-16]!
  403f34:	72001c21 	ands	w1, w1, #0xff
  403f38:	aa0003f3 	mov	x19, x0
  403f3c:	540000e1 	b.ne	0x403f58  // b.any
  403f40:	14000029 	b	0x403fe4
  403f44:	39400260 	ldrb	w0, [x19]
  403f48:	6b01001f 	cmp	w0, w1
  403f4c:	34000460 	cbz	w0, 0x403fd8
  403f50:	54000440 	b.eq	0x403fd8  // b.none
  403f54:	91000673 	add	x19, x19, #0x1
  403f58:	f2400a7f 	tst	x19, #0x7
  403f5c:	54ffff41 	b.ne	0x403f44  // b.any
  403f60:	93407c26 	sxtw	x6, w1
  403f64:	b200c3e2 	mov	x2, #0x101010101010101     	// #72340172838076673
  403f68:	f9400260 	ldr	x0, [x19]
  403f6c:	9b027cc6 	mul	x6, x6, x2
  403f70:	cb020004 	sub	x4, x0, x2
  403f74:	ca0000c3 	eor	x3, x6, x0
  403f78:	8a200080 	bic	x0, x4, x0
  403f7c:	cb020062 	sub	x2, x3, x2
  403f80:	8a230042 	bic	x2, x2, x3
  403f84:	aa020000 	orr	x0, x0, x2
  403f88:	f201c01f 	tst	x0, #0x8080808080808080
  403f8c:	54000181 	b.ne	0x403fbc  // b.any
  403f90:	b207dbe3 	mov	x3, #0xfefefefefefefefe    	// #-72340172838076674
  403f94:	f29fdfe3 	movk	x3, #0xfeff
  403f98:	f8408e60 	ldr	x0, [x19, #8]!
  403f9c:	ca060002 	eor	x2, x0, x6
  403fa0:	8b030005 	add	x5, x0, x3
  403fa4:	8b030044 	add	x4, x2, x3
  403fa8:	8a2000a0 	bic	x0, x5, x0
  403fac:	8a220082 	bic	x2, x4, x2
  403fb0:	aa020000 	orr	x0, x0, x2
  403fb4:	f201c01f 	tst	x0, #0x8080808080808080
  403fb8:	54ffff00 	b.eq	0x403f98  // b.none
  403fbc:	39400260 	ldrb	w0, [x19]
  403fc0:	35000080 	cbnz	w0, 0x403fd0
  403fc4:	14000005 	b	0x403fd8
  403fc8:	38401e60 	ldrb	w0, [x19, #1]!
  403fcc:	34000060 	cbz	w0, 0x403fd8
  403fd0:	6b01001f 	cmp	w0, w1
  403fd4:	54ffffa1 	b.ne	0x403fc8  // b.any
  403fd8:	aa1303e0 	mov	x0, x19
  403fdc:	a8c17bf3 	ldp	x19, x30, [sp], #16
  403fe0:	d65f03c0 	ret
  403fe4:	94000005 	bl	0x403ff8
  403fe8:	8b000273 	add	x19, x19, x0
  403fec:	aa1303e0 	mov	x0, x19
  403ff0:	a8c17bf3 	ldp	x19, x30, [sp], #16
  403ff4:	d65f03c0 	ret
  403ff8:	aa0003e1 	mov	x1, x0
  403ffc:	f240081f 	tst	x0, #0x7
  404000:	540000a1 	b.ne	0x404014  // b.any
  404004:	14000008 	b	0x404024
  404008:	91000421 	add	x1, x1, #0x1
  40400c:	f240083f 	tst	x1, #0x7
  404010:	540000a0 	b.eq	0x404024  // b.none
  404014:	39400022 	ldrb	w2, [x1]
  404018:	35ffff82 	cbnz	w2, 0x404008
  40401c:	cb000020 	sub	x0, x1, x0
  404020:	d65f03c0 	ret
  404024:	f9400022 	ldr	x2, [x1]
  404028:	b207dbe4 	mov	x4, #0xfefefefefefefefe    	// #-72340172838076674
  40402c:	f29fdfe4 	movk	x4, #0xfeff
  404030:	8b040043 	add	x3, x2, x4
  404034:	8a220062 	bic	x2, x3, x2
  404038:	f201c05f 	tst	x2, #0x8080808080808080
  40403c:	540000c1 	b.ne	0x404054  // b.any
  404040:	f8408c22 	ldr	x2, [x1, #8]!
  404044:	8b040043 	add	x3, x2, x4
  404048:	8a220062 	bic	x2, x3, x2
  40404c:	f201c05f 	tst	x2, #0x8080808080808080
  404050:	54ffff80 	b.eq	0x404040  // b.none
  404054:	39400022 	ldrb	w2, [x1]
  404058:	34fffe22 	cbz	w2, 0x40401c
  40405c:	d503201f 	nop
  404060:	38401c22 	ldrb	w2, [x1, #1]!
  404064:	34fffdc2 	cbz	w2, 0x40401c
  404068:	38401c22 	ldrb	w2, [x1, #1]!
  40406c:	35ffffa2 	cbnz	w2, 0x404060
  404070:	17ffffeb 	b	0x40401c
  404074:	d503201f 	nop
  404078:	b40002c2 	cbz	x2, 0x4040d0
  40407c:	39400003 	ldrb	w3, [x0]
  404080:	39400025 	ldrb	w5, [x1]
  404084:	340002a3 	cbz	w3, 0x4040d8
  404088:	f1000446 	subs	x6, x2, #0x1
  40408c:	d2800022 	mov	x2, #0x1                   	// #1
  404090:	7a4018a4 	ccmp	w5, #0x0, #0x4, ne  // ne = any
  404094:	7a451060 	ccmp	w3, w5, #0x0, ne  // ne = any
  404098:	54000181 	b.ne	0x4040c8  // b.any
  40409c:	d503201f 	nop
  4040a0:	38626803 	ldrb	w3, [x0, x2]
  4040a4:	38626825 	ldrb	w5, [x1, x2]
  4040a8:	710000bf 	cmp	w5, #0x0
  4040ac:	7a451060 	ccmp	w3, w5, #0x0, ne  // ne = any
  4040b0:	34000143 	cbz	w3, 0x4040d8
  4040b4:	1a9f17e4 	cset	w4, eq  // eq = none
  4040b8:	eb0200df 	cmp	x6, x2
  4040bc:	1a9f1084 	csel	w4, w4, wzr, ne  // ne = any
  4040c0:	91000442 	add	x2, x2, #0x1
  4040c4:	35fffee4 	cbnz	w4, 0x4040a0
  4040c8:	4b050060 	sub	w0, w3, w5
  4040cc:	d65f03c0 	ret
  4040d0:	52800000 	mov	w0, #0x0                   	// #0
  4040d4:	d65f03c0 	ret
  4040d8:	52800003 	mov	w3, #0x0                   	// #0
  4040dc:	4b050060 	sub	w0, w3, w5
  4040e0:	17fffffb 	b	0x4040cc
  4040e4:	d503201f 	nop
  4040e8:	a9be53f3 	stp	x19, x20, [sp, #-32]!
  4040ec:	aa0003f3 	mov	x19, x0
  4040f0:	aa0103f4 	mov	x20, x1
  4040f4:	aa0103e2 	mov	x2, x1
  4040f8:	52800001 	mov	w1, #0x0                   	// #0
  4040fc:	f9000bfe 	str	x30, [sp, #16]
  404100:	97ffff52 	bl	0x403e48
  404104:	cb130013 	sub	x19, x0, x19
  404108:	f100001f 	cmp	x0, #0x0
  40410c:	9a941260 	csel	x0, x19, x20, ne  // ne = any
  404110:	f9400bfe 	ldr	x30, [sp, #16]
  404114:	a8c253f3 	ldp	x19, x20, [sp], #32
  404118:	d65f03c0 	ret
  40411c:	aa0003e5 	mov	x5, x0
  404120:	b0000040 	adrp	x0, 0x40d000
  404124:	91128001 	add	x1, x0, #0x4a0
  404128:	39400c22 	ldrb	w2, [x1, #3]
  40412c:	13001c42 	sxtb	w2, w2
  404130:	34000682 	cbz	w2, 0x404200
  404134:	320107e3 	mov	w3, #0x80000001            	// #-2147483647
  404138:	885ffca1 	ldaxr	w1, [x5]
  40413c:	34000581 	cbz	w1, 0x4041ec
  404140:	d5033bbf 	dmb	ish
  404144:	36f80062 	tbz	w2, #31, 0x404150
  404148:	91128000 	add	x0, x0, #0x4a0
  40414c:	39000c1f 	strb	wzr, [x0, #3]
  404150:	52800142 	mov	w2, #0xa                   	// #10
  404154:	12b00004 	mov	w4, #0x7fffffff            	// #2147483647
  404158:	320107e6 	mov	w6, #0x80000001            	// #-2147483647
  40415c:	0b040020 	add	w0, w1, w4
  404160:	7100003f 	cmp	w1, #0x0
  404164:	1a81b000 	csel	w0, w0, w1, lt  // lt = tstop
  404168:	0b060003 	add	w3, w0, w6
  40416c:	885ffca1 	ldaxr	w1, [x5]
  404170:	6b01001f 	cmp	w0, w1
  404174:	54000480 	b.eq	0x404204  // b.none
  404178:	d5033bbf 	dmb	ish
  40417c:	71000442 	subs	w2, w2, #0x1
  404180:	54fffee1 	b.ne	0x40415c  // b.any
  404184:	885ffca4 	ldaxr	w4, [x5]
  404188:	11000484 	add	w4, w4, #0x1
  40418c:	8800fca4 	stlxr	w0, w4, [x5]
  404190:	35ffffa0 	cbnz	w0, 0x404184
  404194:	12b00007 	mov	w7, #0x7fffffff            	// #2147483647
  404198:	52b00006 	mov	w6, #0x80000000            	// #-2147483648
  40419c:	36f801a4 	tbz	w4, #31, 0x4041d0
  4041a0:	aa0503e0 	mov	x0, x5
  4041a4:	93407c82 	sxtw	x2, w4
  4041a8:	d2800c48 	mov	x8, #0x62                  	// #98
  4041ac:	d2801001 	mov	x1, #0x80                  	// #128
  4041b0:	d2800003 	mov	x3, #0x0                   	// #0
  4041b4:	d4000001 	svc	#0x0
  4041b8:	b100981f 	cmn	x0, #0x26
  4041bc:	54000081 	b.ne	0x4041cc  // b.any
  4041c0:	aa0503e0 	mov	x0, x5
  4041c4:	d2800001 	mov	x1, #0x0                   	// #0
  4041c8:	d4000001 	svc	#0x0
  4041cc:	0b070084 	add	w4, w4, w7
  4041d0:	0b060080 	add	w0, w4, w6
  4041d4:	885ffca1 	ldaxr	w1, [x5]
  4041d8:	6b01009f 	cmp	w4, w1
  4041dc:	540001a0 	b.eq	0x404210  // b.none
  4041e0:	d5033bbf 	dmb	ish
  4041e4:	2a0103e4 	mov	w4, w1
  4041e8:	17ffffed 	b	0x40419c
  4041ec:	8801fca3 	stlxr	w1, w3, [x5]
  4041f0:	35fffa41 	cbnz	w1, 0x404138
  4041f4:	36f80062 	tbz	w2, #31, 0x404200
  4041f8:	91128000 	add	x0, x0, #0x4a0
  4041fc:	39000c1f 	strb	wzr, [x0, #3]
  404200:	d65f03c0 	ret
  404204:	8801fca3 	stlxr	w1, w3, [x5]
  404208:	35fffb21 	cbnz	w1, 0x40416c
  40420c:	17fffffd 	b	0x404200
  404210:	8801fca0 	stlxr	w1, w0, [x5]
  404214:	35fffe01 	cbnz	w1, 0x4041d4
  404218:	17fffffa 	b	0x404200
  40421c:	aa0003e3 	mov	x3, x0
  404220:	b9400000 	ldr	w0, [x0]
  404224:	36f80260 	tbz	w0, #31, 0x404270
  404228:	12b00004 	mov	w4, #0x7fffffff            	// #2147483647
  40422c:	885ffc60 	ldaxr	w0, [x3]
  404230:	0b040001 	add	w1, w0, w4
  404234:	8802fc61 	stlxr	w2, w1, [x3]
  404238:	35ffffa2 	cbnz	w2, 0x40422c
  40423c:	320107e1 	mov	w1, #0x80000001            	// #-2147483647
  404240:	6b01001f 	cmp	w0, w1
  404244:	54000160 	b.eq	0x404270  // b.none
  404248:	aa0303e0 	mov	x0, x3
  40424c:	d2800c48 	mov	x8, #0x62                  	// #98
  404250:	d2801021 	mov	x1, #0x81                  	// #129
  404254:	d2800022 	mov	x2, #0x1                   	// #1
  404258:	d4000001 	svc	#0x0
  40425c:	b100981f 	cmn	x0, #0x26
  404260:	54000081 	b.ne	0x404270  // b.any
  404264:	aa0303e0 	mov	x0, x3
  404268:	aa0203e1 	mov	x1, x2
  40426c:	d4000001 	svc	#0x0
  404270:	d65f03c0 	ret
  404274:	aa0003e8 	mov	x8, x0
  404278:	aa0103e0 	mov	x0, x1
  40427c:	aa0203e1 	mov	x1, x2
  404280:	aa0303e2 	mov	x2, x3
  404284:	aa0403e3 	mov	x3, x4
  404288:	aa0503e4 	mov	x4, x5
  40428c:	aa0603e5 	mov	x5, x6
  404290:	d4000001 	svc	#0x0
  404294:	d65f03c0 	ret
  404298:	17fffff7 	b	0x404274
  40429c:	b0000040 	adrp	x0, 0x40d000
  4042a0:	910aa000 	add	x0, x0, #0x2a8
  4042a4:	1400007c 	b	0x404494
  4042a8:	b0000040 	adrp	x0, 0x40d000
  4042ac:	910aa000 	add	x0, x0, #0x2a8
  4042b0:	14000004 	b	0x4042c0
  4042b4:	b0000040 	adrp	x0, 0x40d000
  4042b8:	910aa000 	add	x0, x0, #0x2a8
  4042bc:	14000051 	b	0x404400
  4042c0:	d2800001 	mov	x1, #0x0                   	// #0
  4042c4:	14000001 	b	0x4042c8
  4042c8:	a9bd53f3 	stp	x19, x20, [sp, #-48]!
  4042cc:	aa0003f3 	mov	x19, x0
  4042d0:	a9015bf5 	stp	x21, x22, [sp, #16]
  4042d4:	aa0103f5 	mov	x21, x1
  4042d8:	f90013fe 	str	x30, [sp, #32]
  4042dc:	94000033 	bl	0x4043a8
  4042e0:	7100401f 	cmp	w0, #0x10
  4042e4:	54000501 	b.ne	0x404384  // b.any
  4042e8:	52800ca0 	mov	w0, #0x65                  	// #101
  4042ec:	71000400 	subs	w0, w0, #0x1
  4042f0:	540000a0 	b.eq	0x404304  // b.none
  4042f4:	b9400261 	ldr	w1, [x19]
  4042f8:	34000061 	cbz	w1, 0x404304
  4042fc:	b9400661 	ldr	w1, [x19, #4]
  404300:	340004a1 	cbz	w1, 0x404394
  404304:	12b00016 	mov	w22, #0x7fffffff            	// #2147483647
  404308:	aa1303e0 	mov	x0, x19
  40430c:	94000027 	bl	0x4043a8
  404310:	7100401f 	cmp	w0, #0x10
  404314:	54000381 	b.ne	0x404384  // b.any
  404318:	b9400260 	ldr	w0, [x19]
  40431c:	34ffff60 	cbz	w0, 0x404308
  404320:	12007801 	and	w1, w0, #0x7fffffff
  404324:	6b16003f 	cmp	w1, w22
  404328:	54ffff01 	b.ne	0x404308  // b.any
  40432c:	32010001 	orr	w1, w0, #0x80000000
  404330:	91001274 	add	x20, x19, #0x4
  404334:	885ffe82 	ldaxr	w2, [x20]
  404338:	11000442 	add	w2, w2, #0x1
  40433c:	8803fe82 	stlxr	w3, w2, [x20]
  404340:	35ffffa3 	cbnz	w3, 0x404334
  404344:	885ffe62 	ldaxr	w2, [x19]
  404348:	6b02001f 	cmp	w0, w2
  40434c:	54000280 	b.eq	0x40439c  // b.none
  404350:	d5033bbf 	dmb	ish
  404354:	b9400a64 	ldr	w4, [x19, #8]
  404358:	aa1503e3 	mov	x3, x21
  40435c:	aa1303e0 	mov	x0, x19
  404360:	52800002 	mov	w2, #0x0                   	// #0
  404364:	52190084 	eor	w4, w4, #0x80
  404368:	94000328 	bl	0x405008
  40436c:	885ffe82 	ldaxr	w2, [x20]
  404370:	51000442 	sub	w2, w2, #0x1
  404374:	8801fe82 	stlxr	w1, w2, [x20]
  404378:	35ffffa1 	cbnz	w1, 0x40436c
  40437c:	721d781f 	tst	w0, #0xfffffffb
  404380:	54fffc40 	b.eq	0x404308  // b.none
  404384:	a9415bf5 	ldp	x21, x22, [sp, #16]
  404388:	f94013fe 	ldr	x30, [sp, #32]
  40438c:	a8c353f3 	ldp	x19, x20, [sp], #48
  404390:	d65f03c0 	ret
  404394:	d5033bbf 	dmb	ish
  404398:	17ffffd5 	b	0x4042ec
  40439c:	8802fe61 	stlxr	w2, w1, [x19]
  4043a0:	35fffd22 	cbnz	w2, 0x404344
  4043a4:	17ffffec 	b	0x404354
  4043a8:	aa0003e1 	mov	x1, x0
  4043ac:	12b00004 	mov	w4, #0x7fffffff            	// #2147483647
  4043b0:	321f77e5 	mov	w5, #0x7ffffffe            	// #2147483646
  4043b4:	b9400022 	ldr	w2, [x1]
  4043b8:	12007840 	and	w0, w2, #0x7fffffff
  4043bc:	6b04001f 	cmp	w0, w4
  4043c0:	54000180 	b.eq	0x4043f0  // b.none
  4043c4:	6b05001f 	cmp	w0, w5
  4043c8:	54000180 	b.eq	0x4043f8  // b.none
  4043cc:	11000443 	add	w3, w2, #0x1
  4043d0:	885ffc20 	ldaxr	w0, [x1]
  4043d4:	6b00005f 	cmp	w2, w0
  4043d8:	54000060 	b.eq	0x4043e4  // b.none
  4043dc:	d5033bbf 	dmb	ish
  4043e0:	17fffff5 	b	0x4043b4
  4043e4:	8800fc23 	stlxr	w0, w3, [x1]
  4043e8:	35ffff40 	cbnz	w0, 0x4043d0
  4043ec:	d65f03c0 	ret
  4043f0:	52800200 	mov	w0, #0x10                  	// #16
  4043f4:	17fffffe 	b	0x4043ec
  4043f8:	52800160 	mov	w0, #0xb                   	// #11
  4043fc:	17fffffc 	b	0x4043ec
  404400:	b9400804 	ldr	w4, [x0, #8]
  404404:	aa0003e3 	mov	x3, x0
  404408:	12b00007 	mov	w7, #0x7fffffff            	// #2147483647
  40440c:	b9400060 	ldr	w0, [x3]
  404410:	b9400465 	ldr	w5, [x3, #4]
  404414:	12007802 	and	w2, w0, #0x7fffffff
  404418:	51000401 	sub	w1, w0, #0x1
  40441c:	6b07005f 	cmp	w2, w7
  404420:	7a411844 	ccmp	w2, #0x1, #0x4, ne  // ne = any
  404424:	1a9f1021 	csel	w1, w1, wzr, ne  // ne = any
  404428:	885ffc66 	ldaxr	w6, [x3]
  40442c:	6b06001f 	cmp	w0, w6
  404430:	54000060 	b.eq	0x40443c  // b.none
  404434:	d5033bbf 	dmb	ish
  404438:	17fffff5 	b	0x40440c
  40443c:	8806fc61 	stlxr	w6, w1, [x3]
  404440:	35ffff46 	cbnz	w6, 0x404428
  404444:	35000241 	cbnz	w1, 0x40448c
  404448:	710000bf 	cmp	w5, #0x0
  40444c:	7a400801 	ccmp	w0, #0x0, #0x1, eq  // eq = none
  404450:	540001ea 	b.ge	0x40448c  // b.tcont
  404454:	7102009f 	cmp	w4, #0x80
  404458:	52801001 	mov	w1, #0x80                  	// #128
  40445c:	1a8103e1 	csel	w1, wzr, w1, eq  // eq = none
  404460:	aa0303e0 	mov	x0, x3
  404464:	32000021 	orr	w1, w1, #0x1
  404468:	93407c42 	sxtw	x2, w2
  40446c:	d2800c48 	mov	x8, #0x62                  	// #98
  404470:	93407c21 	sxtw	x1, w1
  404474:	d4000001 	svc	#0x0
  404478:	b100981f 	cmn	x0, #0x26
  40447c:	54000081 	b.ne	0x40448c  // b.any
  404480:	aa0303e0 	mov	x0, x3
  404484:	d2800021 	mov	x1, #0x1                   	// #1
  404488:	d4000001 	svc	#0x0
  40448c:	52800000 	mov	w0, #0x0                   	// #0
  404490:	d65f03c0 	ret
  404494:	d2800001 	mov	x1, #0x0                   	// #0
  404498:	140002f9 	b	0x40507c
  40449c:	d2800628 	mov	x8, #0x31                  	// #49
  4044a0:	f81f0ffe 	str	x30, [sp, #-16]!
  4044a4:	d4000001 	svc	#0x0
  4044a8:	97fff536 	bl	0x401980
  4044ac:	f84107fe 	ldr	x30, [sp], #16
  4044b0:	d65f03c0 	ret
  4044b4:	d65f03c0 	ret
  4044b8:	f81f0ffe 	str	x30, [sp, #-16]!
  4044bc:	97fffffe 	bl	0x4044b4
  4044c0:	93407c01 	sxtw	x1, w0
  4044c4:	d2800006 	mov	x6, #0x0                   	// #0
  4044c8:	d2800005 	mov	x5, #0x0                   	// #0
  4044cc:	d2800004 	mov	x4, #0x0                   	// #0
  4044d0:	d2800003 	mov	x3, #0x0                   	// #0
  4044d4:	d2800002 	mov	x2, #0x0                   	// #0
  4044d8:	d2800720 	mov	x0, #0x39                  	// #57
  4044dc:	97ffff6f 	bl	0x404298
  4044e0:	3100101f 	cmn	w0, #0x4
  4044e4:	1a9f1000 	csel	w0, w0, wzr, ne  // ne = any
  4044e8:	93407c00 	sxtw	x0, w0
  4044ec:	97fff525 	bl	0x401980
  4044f0:	f84107fe 	ldr	x30, [sp], #16
  4044f4:	d65f03c0 	ret
  4044f8:	d28002e8 	mov	x8, #0x17                  	// #23
  4044fc:	93407c00 	sxtw	x0, w0
  404500:	f81f0ffe 	str	x30, [sp, #-16]!
  404504:	d4000001 	svc	#0x0
  404508:	97fff51e 	bl	0x401980
  40450c:	f84107fe 	ldr	x30, [sp], #16
  404510:	d65f03c0 	ret
  404514:	d2800768 	mov	x8, #0x3b                  	// #59
  404518:	d2800001 	mov	x1, #0x0                   	// #0
  40451c:	f81f0ffe 	str	x30, [sp, #-16]!
  404520:	d4000001 	svc	#0x0
  404524:	97fff517 	bl	0x401980
  404528:	f84107fe 	ldr	x30, [sp], #16
  40452c:	d65f03c0 	ret
  404530:	a9bf7bf3 	stp	x19, x30, [sp, #-16]!
  404534:	aa0003f3 	mov	x19, x0
  404538:	f9000000 	str	x0, [x0]
  40453c:	91032000 	add	x0, x0, #0xc8
  404540:	940002cc 	bl	0x405070
  404544:	7100001f 	cmp	w0, #0x0
  404548:	5400030b 	b.lt	0x4045a8  // b.tstop
  40454c:	54000081 	b.ne	0x40455c  // b.any
  404550:	b0000040 	adrp	x0, 0x40d000
  404554:	52800021 	mov	w1, #0x1                   	// #1
  404558:	39128001 	strb	w1, [x0, #1184]
  40455c:	52800040 	mov	w0, #0x2                   	// #2
  404560:	d2800c08 	mov	x8, #0x60                  	// #96
  404564:	b9002a60 	str	w0, [x19, #40]
  404568:	b0000040 	adrp	x0, 0x40d000
  40456c:	91142000 	add	x0, x0, #0x508
  404570:	d4000001 	svc	#0x0
  404574:	b9002260 	str	w0, [x19, #32]
  404578:	b0000040 	adrp	x0, 0x40d000
  40457c:	91136000 	add	x0, x0, #0x4d8
  404580:	f9004e60 	str	x0, [x19, #152]
  404584:	9101e260 	add	x0, x19, #0x78
  404588:	f9003e60 	str	x0, [x19, #120]
  40458c:	b0000040 	adrp	x0, 0x40d000
  404590:	a900ce73 	stp	x19, x19, [x19, #8]
  404594:	f9424800 	ldr	x0, [x0, #1168]
  404598:	f9000e60 	str	x0, [x19, #24]
  40459c:	52800000 	mov	w0, #0x0                   	// #0
  4045a0:	a8c17bf3 	ldp	x19, x30, [sp], #16
  4045a4:	d65f03c0 	ret
  4045a8:	12800000 	mov	w0, #0xffffffff            	// #-1
  4045ac:	17fffffd 	b	0x4045a0
  4045b0:	a9bb53f3 	stp	x19, x20, [sp, #-80]!
  4045b4:	a9015bf5 	stp	x21, x22, [sp, #16]
  4045b8:	aa0003f5 	mov	x21, x0
  4045bc:	b0000040 	adrp	x0, 0x40d000
  4045c0:	91128001 	add	x1, x0, #0x4a0
  4045c4:	a90263f7 	stp	x23, x24, [sp, #32]
  4045c8:	aa0003f6 	mov	x22, x0
  4045cc:	a9036bf9 	stp	x25, x26, [sp, #48]
  4045d0:	a9415c34 	ldp	x20, x23, [x1, #16]
  4045d4:	f9401033 	ldr	x19, [x1, #32]
  4045d8:	d1000673 	sub	x19, x19, #0x1
  4045dc:	d10022e2 	sub	x2, x23, #0x8
  4045e0:	f9401437 	ldr	x23, [x1, #40]
  4045e4:	f90023fe 	str	x30, [sp, #64]
  4045e8:	cb170c57 	sub	x23, x2, x23, lsl #3
  4045ec:	928018e2 	mov	x2, #0xffffffffffffff38    	// #-200
  4045f0:	cb150042 	sub	x2, x2, x21
  4045f4:	8b1702b8 	add	x24, x21, x23
  4045f8:	8a020273 	and	x19, x19, x2
  4045fc:	9100231a 	add	x26, x24, #0x8
  404600:	8b1302b3 	add	x19, x21, x19
  404604:	91032279 	add	x25, x19, #0xc8
  404608:	b5000194 	cbnz	x20, 0x404638
  40460c:	911282c0 	add	x0, x22, #0x4a0
  404610:	a9436bf9 	ldp	x25, x26, [sp, #48]
  404614:	f9401400 	ldr	x0, [x0, #40]
  404618:	f8376aa0 	str	x0, [x21, x23]
  40461c:	a9415bf5 	ldp	x21, x22, [sp, #16]
  404620:	aa1303e0 	mov	x0, x19
  404624:	f94023fe 	ldr	x30, [sp, #64]
  404628:	f9006278 	str	x24, [x19, #192]
  40462c:	a94263f7 	ldp	x23, x24, [sp, #32]
  404630:	a8c553f3 	ldp	x19, x20, [sp], #80
  404634:	d65f03c0 	ret
  404638:	f9401680 	ldr	x0, [x20, #40]
  40463c:	f9400681 	ldr	x1, [x20, #8]
  404640:	8b000320 	add	x0, x25, x0
  404644:	f8008740 	str	x0, [x26], #8
  404648:	f9400a82 	ldr	x2, [x20, #16]
  40464c:	f9401680 	ldr	x0, [x20, #40]
  404650:	8b000320 	add	x0, x25, x0
  404654:	97fffd57 	bl	0x403bb0
  404658:	f9400294 	ldr	x20, [x20]
  40465c:	17ffffeb 	b	0x404608
  404660:	d0000024 	adrp	x4, 0x40a000
  404664:	b0000025 	adrp	x5, 0x409000
  404668:	f9400c0a 	ldr	x10, [x0, #24]
  40466c:	529caa2b 	mov	w11, #0xe551                	// #58705
  404670:	b942ec87 	ldr	w7, [x4, #748]
  404674:	52800009 	mov	w9, #0x0                   	// #0
  404678:	f9476ca5 	ldr	x5, [x5, #3800]
  40467c:	aa0a03e2 	mov	x2, x10
  404680:	f9401408 	ldr	x8, [x0, #40]
  404684:	d2800001 	mov	x1, #0x0                   	// #0
  404688:	d2800003 	mov	x3, #0x0                   	// #0
  40468c:	72ac8e8b 	movk	w11, #0x6474, lsl #16
  404690:	d2a0100c 	mov	x12, #0x800000              	// #8388608
  404694:	f81f0ffe 	str	x30, [sp, #-16]!
  404698:	b5000788 	cbnz	x8, 0x404788
  40469c:	34000049 	cbz	w9, 0x4046a4
  4046a0:	b902ec87 	str	w7, [x4, #748]
  4046a4:	b0000045 	adrp	x5, 0x40d000
  4046a8:	b0000044 	adrp	x4, 0x40d000
  4046ac:	b40001e3 	cbz	x3, 0x4046e8
  4046b0:	f9400862 	ldr	x2, [x3, #16]
  4046b4:	9110e0a0 	add	x0, x5, #0x438
  4046b8:	8b010041 	add	x1, x2, x1
  4046bc:	d2800022 	mov	x2, #0x1                   	// #1
  4046c0:	f9000401 	str	x1, [x0, #8]
  4046c4:	f9401061 	ldr	x1, [x3, #32]
  4046c8:	f9000801 	str	x1, [x0, #16]
  4046cc:	f9401461 	ldr	x1, [x3, #40]
  4046d0:	f9000c01 	str	x1, [x0, #24]
  4046d4:	f9401861 	ldr	x1, [x3, #48]
  4046d8:	f9001001 	str	x1, [x0, #32]
  4046dc:	91128081 	add	x1, x4, #0x4a0
  4046e0:	f9000820 	str	x0, [x1, #16]
  4046e4:	f9001422 	str	x2, [x1, #40]
  4046e8:	9110e0a3 	add	x3, x5, #0x438
  4046ec:	a9419860 	ldp	x0, x6, [x3, #24]
  4046f0:	f9400462 	ldr	x2, [x3, #8]
  4046f4:	8b020001 	add	x1, x0, x2
  4046f8:	d10004c7 	sub	x7, x6, #0x1
  4046fc:	cb0103e1 	neg	x1, x1
  404700:	f1001cdf 	cmp	x6, #0x7
  404704:	8a070021 	and	x1, x1, x7
  404708:	8b000021 	add	x1, x1, x0
  40470c:	d1004040 	sub	x0, x2, #0x10
  404710:	8a070000 	and	x0, x0, x7
  404714:	f9000c61 	str	x1, [x3, #24]
  404718:	91004000 	add	x0, x0, #0x10
  40471c:	f9001460 	str	x0, [x3, #40]
  404720:	8b000022 	add	x2, x1, x0
  404724:	54000068 	b.hi	0x404730  // b.pmore
  404728:	d2800100 	mov	x0, #0x8                   	// #8
  40472c:	f9001060 	str	x0, [x3, #32]
  404730:	9110e0a5 	add	x5, x5, #0x438
  404734:	91128083 	add	x3, x4, #0x4a0
  404738:	f94010a0 	ldr	x0, [x5, #32]
  40473c:	91037c01 	add	x1, x0, #0xdf
  404740:	8b020021 	add	x1, x1, x2
  404744:	927df021 	and	x1, x1, #0xfffffffffffffff8
  404748:	a9018061 	stp	x1, x0, [x3, #24]
  40474c:	f105403f 	cmp	x1, #0x150
  404750:	54000549 	b.ls	0x4047f8  // b.plast
  404754:	d2801bc8 	mov	x8, #0xde                  	// #222
  404758:	d2800000 	mov	x0, #0x0                   	// #0
  40475c:	d2800062 	mov	x2, #0x3                   	// #3
  404760:	d2800443 	mov	x3, #0x22                  	// #34
  404764:	92800004 	mov	x4, #0xffffffffffffffff    	// #-1
  404768:	d2800005 	mov	x5, #0x0                   	// #0
  40476c:	d4000001 	svc	#0x0
  404770:	97ffff90 	bl	0x4045b0
  404774:	97ffff6f 	bl	0x404530
  404778:	36f80460 	tbz	w0, #31, 0x404804
  40477c:	d2800000 	mov	x0, #0x0                   	// #0
  404780:	3900001f 	strb	wzr, [x0]
  404784:	d4207d00 	brk	#0x3e8
  404788:	b9400046 	ldr	w6, [x2]
  40478c:	710018df 	cmp	w6, #0x6
  404790:	540000e1 	b.ne	0x4047ac  // b.any
  404794:	f9400841 	ldr	x1, [x2, #16]
  404798:	cb010141 	sub	x1, x10, x1
  40479c:	f9401006 	ldr	x6, [x0, #32]
  4047a0:	d1000508 	sub	x8, x8, #0x1
  4047a4:	8b060042 	add	x2, x2, x6
  4047a8:	17ffffbc 	b	0x404698
  4047ac:	710008df 	cmp	w6, #0x2
  4047b0:	54000180 	b.eq	0x4047e0  // b.none
  4047b4:	71001cdf 	cmp	w6, #0x7
  4047b8:	540001c0 	b.eq	0x4047f0  // b.none
  4047bc:	6b0b00df 	cmp	w6, w11
  4047c0:	54fffee1 	b.ne	0x40479c  // b.any
  4047c4:	f9401446 	ldr	x6, [x2, #40]
  4047c8:	eb2740df 	cmp	x6, w7, uxtw
  4047cc:	54fffe89 	b.ls	0x40479c  // b.plast
  4047d0:	f16000df 	cmp	x6, #0x800, lsl #12
  4047d4:	52800029 	mov	w9, #0x1                   	// #1
  4047d8:	9a8c90c7 	csel	x7, x6, x12, ls  // ls = plast
  4047dc:	17fffff0 	b	0x40479c
  4047e0:	b4fffde5 	cbz	x5, 0x40479c
  4047e4:	f9400841 	ldr	x1, [x2, #16]
  4047e8:	cb0100a1 	sub	x1, x5, x1
  4047ec:	17ffffec 	b	0x40479c
  4047f0:	aa0203e3 	mov	x3, x2
  4047f4:	17ffffea 	b	0x40479c
  4047f8:	b0000040 	adrp	x0, 0x40d000
  4047fc:	910ba000 	add	x0, x0, #0x2e8
  404800:	17ffffdc 	b	0x404770
  404804:	f84107fe 	ldr	x30, [sp], #16
  404808:	d65f03c0 	ret
  40480c:	d53bd040 	mrs	x0, tpidr_el0
  404810:	d1029000 	sub	x0, x0, #0xa4
  404814:	d65f03c0 	ret
  404818:	7102101f 	cmp	w0, #0x84
  40481c:	90000022 	adrp	x2, 0x408000
  404820:	1a9f3000 	csel	w0, w0, wzr, cc  // cc = lo, ul, last
  404824:	91000042 	add	x2, x2, #0x0
  404828:	f9401421 	ldr	x1, [x1, #40]
  40482c:	7860d842 	ldrh	w2, [x2, w0, sxtw #1]
  404830:	90000020 	adrp	x0, 0x408000
  404834:	91042000 	add	x0, x0, #0x108
  404838:	8b020000 	add	x0, x0, x2
  40483c:	1400000b 	b	0x404868
  404840:	d53bd041 	mrs	x1, tpidr_el0
  404844:	f85d0021 	ldur	x1, [x1, #-48]
  404848:	17fffff4 	b	0x404818
  40484c:	93407c01 	sxtw	x1, w0
  404850:	d2800bc8 	mov	x8, #0x5e                  	// #94
  404854:	aa0103e0 	mov	x0, x1
  404858:	d4000001 	svc	#0x0
  40485c:	d2800ba8 	mov	x8, #0x5d                  	// #93
  404860:	17fffffd 	b	0x404854
  404864:	d65f03c0 	ret
  404868:	17ffffff 	b	0x404864
  40486c:	d53bd041 	mrs	x1, tpidr_el0
  404870:	f85d0021 	ldur	x1, [x1, #-48]
  404874:	f9401421 	ldr	x1, [x1, #40]
  404878:	17fffffb 	b	0x404864
  40487c:	d10043ff 	sub	sp, sp, #0x10
  404880:	3d8003e0 	str	q0, [sp]
  404884:	a94003e1 	ldp	x1, x0, [sp]
  404888:	d370f802 	ubfx	x2, x0, #48, #15
  40488c:	9240bc00 	and	x0, x0, #0xffffffffffff
  404890:	350000e2 	cbnz	w2, 0x4048ac
  404894:	aa010000 	orr	x0, x0, x1
  404898:	f100001f 	cmp	x0, #0x0
  40489c:	1a9f07e0 	cset	w0, ne  // ne = any
  4048a0:	11000800 	add	w0, w0, #0x2
  4048a4:	910043ff 	add	sp, sp, #0x10
  4048a8:	d65f03c0 	ret
  4048ac:	528fffe3 	mov	w3, #0x7fff                	// #32767
  4048b0:	6b03005f 	cmp	w2, w3
  4048b4:	540000a1 	b.ne	0x4048c8  // b.any
  4048b8:	aa010000 	orr	x0, x0, x1
  4048bc:	f100001f 	cmp	x0, #0x0
  4048c0:	1a9f17e0 	cset	w0, eq  // eq = none
  4048c4:	17fffff8 	b	0x4048a4
  4048c8:	52800080 	mov	w0, #0x4                   	// #4
  4048cc:	17fffff6 	b	0x4048a4
  4048d0:	d10043ff 	sub	sp, sp, #0x10
  4048d4:	3d8003e0 	str	q0, [sp]
  4048d8:	f94007e0 	ldr	x0, [sp, #8]
  4048dc:	910043ff 	add	sp, sp, #0x10
  4048e0:	d370fc00 	lsr	x0, x0, #48
  4048e4:	530f7c00 	lsr	w0, w0, #15
  4048e8:	d65f03c0 	ret
  4048ec:	a9be7bf3 	stp	x19, x30, [sp, #-32]!
  4048f0:	aa0003f3 	mov	x19, x0
  4048f4:	3d8007e0 	str	q0, [sp, #16]
  4048f8:	f9400fe1 	ldr	x1, [sp, #24]
  4048fc:	a9410fe2 	ldp	x2, x3, [sp, #16]
  404900:	d370fc20 	lsr	x0, x1, #48
  404904:	d370f821 	ubfx	x1, x1, #48, #15
  404908:	35000281 	cbnz	w1, 0x404958
  40490c:	6f00e401 	movi	v1.2d, #0x0
  404910:	94000686 	bl	0x406328
  404914:	340001e0 	cbz	w0, 0x404950
  404918:	90000020 	adrp	x0, 0x408000
  40491c:	91224000 	add	x0, x0, #0x890
  404920:	3dc007e0 	ldr	q0, [sp, #16]
  404924:	3dc00001 	ldr	q1, [x0]
  404928:	940006c2 	bl	0x406430
  40492c:	aa1303e0 	mov	x0, x19
  404930:	97ffffef 	bl	0x4048ec
  404934:	b9400260 	ldr	w0, [x19]
  404938:	3d8007e0 	str	q0, [sp, #16]
  40493c:	5101e000 	sub	w0, w0, #0x78
  404940:	b9000260 	str	w0, [x19]
  404944:	3dc007e0 	ldr	q0, [sp, #16]
  404948:	a8c27bf3 	ldp	x19, x30, [sp], #32
  40494c:	d65f03c0 	ret
  404950:	b900027f 	str	wzr, [x19]
  404954:	17fffffc 	b	0x404944
  404958:	528fffe4 	mov	w4, #0x7fff                	// #32767
  40495c:	6b04003f 	cmp	w1, w4
  404960:	54ffff20 	b.eq	0x404944  // b.none
  404964:	12114000 	and	w0, w0, #0xffff8000
  404968:	1287ffa4 	mov	w4, #0xffffc002            	// #-16382
  40496c:	321f3000 	orr	w0, w0, #0x3ffe
  404970:	0b040021 	add	w1, w1, w4
  404974:	b9000261 	str	w1, [x19]
  404978:	b3503c03 	bfi	x3, x0, #48, #16
  40497c:	a9010fe2 	stp	x2, x3, [sp, #16]
  404980:	17fffff1 	b	0x404944
  404984:	b40000c0 	cbz	x0, 0x40499c
  404988:	f81f0ffe 	str	x30, [sp, #-16]!
  40498c:	d2800002 	mov	x2, #0x0                   	// #0
  404990:	940002f2 	bl	0x405558
  404994:	f84107fe 	ldr	x30, [sp], #16
  404998:	d65f03c0 	ret
  40499c:	52800000 	mov	w0, #0x0                   	// #0
  4049a0:	d65f03c0 	ret
  4049a4:	d65f03c0 	ret
  4049a8:	a9b653f3 	stp	x19, x20, [sp, #-160]!
  4049ac:	b0000054 	adrp	x20, 0x40d000
  4049b0:	a9017bf5 	stp	x21, x30, [sp, #16]
  4049b4:	910083f5 	add	x21, sp, #0x20
  4049b8:	aa1503e0 	mov	x0, x21
  4049bc:	97fff470 	bl	0x401b7c
  4049c0:	12800000 	mov	w0, #0xffffffff            	// #-1
  4049c4:	97fffff8 	bl	0x4049a4
  4049c8:	91143280 	add	x0, x20, #0x50c
  4049cc:	97fffdd4 	bl	0x40411c
  4049d0:	d2801b88 	mov	x8, #0xdc                  	// #220
  4049d4:	d2800220 	mov	x0, #0x11                  	// #17
  4049d8:	d2800001 	mov	x1, #0x0                   	// #0
  4049dc:	d4000001 	svc	#0x0
  4049e0:	aa0003f3 	mov	x19, x0
  4049e4:	35000260 	cbnz	w0, 0x404a30
  4049e8:	d53bd041 	mrs	x1, tpidr_el0
  4049ec:	d2801648 	mov	x8, #0xb2                  	// #178
  4049f0:	d1032022 	sub	x2, x1, #0xc8
  4049f4:	d4000001 	svc	#0x0
  4049f8:	b8158020 	stur	w0, [x1, #-168]
  4049fc:	b0000040 	adrp	x0, 0x40d000
  404a00:	f81c003f 	stur	xzr, [x1, #-64]
  404a04:	b905081f 	str	wzr, [x0, #1288]
  404a08:	b0000040 	adrp	x0, 0x40d000
  404a0c:	91128000 	add	x0, x0, #0x4a0
  404a10:	a9340822 	stp	x2, x2, [x1, #-192]
  404a14:	f81b803f 	stur	xzr, [x1, #-72]
  404a18:	39400c01 	ldrb	w1, [x0, #3]
  404a1c:	b900041f 	str	wzr, [x0, #4]
  404a20:	72001c3f 	tst	w1, #0xff
  404a24:	54000060 	b.eq	0x404a30  // b.none
  404a28:	12800001 	mov	w1, #0xffffffff            	// #-1
  404a2c:	39000c01 	strb	w1, [x0, #3]
  404a30:	91143280 	add	x0, x20, #0x50c
  404a34:	97fffdfa 	bl	0x40421c
  404a38:	7100027f 	cmp	w19, #0x0
  404a3c:	1a9f17e0 	cset	w0, eq  // eq = none
  404a40:	97ffffd9 	bl	0x4049a4
  404a44:	aa1503e0 	mov	x0, x21
  404a48:	97fff45d 	bl	0x401bbc
  404a4c:	93407e60 	sxtw	x0, w19
  404a50:	97fff3cc 	bl	0x401980
  404a54:	a9417bf5 	ldp	x21, x30, [sp, #16]
  404a58:	a8ca53f3 	ldp	x19, x20, [sp], #160
  404a5c:	d65f03c0 	ret
  404a60:	b9408c02 	ldr	w2, [x0, #140]
  404a64:	d53bd041 	mrs	x1, tpidr_el0
  404a68:	b8558021 	ldur	w1, [x1, #-168]
  404a6c:	12017842 	and	w2, w2, #0xbfffffff
  404a70:	6b01005f 	cmp	w2, w1
  404a74:	540004a0 	b.eq	0x404b08  // b.none
  404a78:	91023004 	add	x4, x0, #0x8c
  404a7c:	885ffc80 	ldaxr	w0, [x4]
  404a80:	340001a0 	cbz	w0, 0x404ab4
  404a84:	d5033bbf 	dmb	ish
  404a88:	32020025 	orr	w5, w1, #0x40000000
  404a8c:	885ffc80 	ldaxr	w0, [x4]
  404a90:	34000360 	cbz	w0, 0x404afc
  404a94:	d5033bbf 	dmb	ish
  404a98:	32020002 	orr	w2, w0, #0x40000000
  404a9c:	37f00180 	tbnz	w0, #30, 0x404acc
  404aa0:	885ffc81 	ldaxr	w1, [x4]
  404aa4:	6b00003f 	cmp	w1, w0
  404aa8:	540000e0 	b.eq	0x404ac4  // b.none
  404aac:	d5033bbf 	dmb	ish
  404ab0:	17fffff7 	b	0x404a8c
  404ab4:	8800fc81 	stlxr	w0, w1, [x4]
  404ab8:	35fffe20 	cbnz	w0, 0x404a7c
  404abc:	52800020 	mov	w0, #0x1                   	// #1
  404ac0:	d65f03c0 	ret
  404ac4:	8801fc82 	stlxr	w1, w2, [x4]
  404ac8:	35fffec1 	cbnz	w1, 0x404aa0
  404acc:	aa0403e0 	mov	x0, x4
  404ad0:	93407c42 	sxtw	x2, w2
  404ad4:	d2800c48 	mov	x8, #0x62                  	// #98
  404ad8:	d2801001 	mov	x1, #0x80                  	// #128
  404adc:	d2800003 	mov	x3, #0x0                   	// #0
  404ae0:	d4000001 	svc	#0x0
  404ae4:	b100981f 	cmn	x0, #0x26
  404ae8:	54fffd21 	b.ne	0x404a8c  // b.any
  404aec:	aa0403e0 	mov	x0, x4
  404af0:	d2800001 	mov	x1, #0x0                   	// #0
  404af4:	d4000001 	svc	#0x0
  404af8:	17ffffe5 	b	0x404a8c
  404afc:	8800fc85 	stlxr	w0, w5, [x4]
  404b00:	35fffc60 	cbnz	w0, 0x404a8c
  404b04:	17ffffee 	b	0x404abc
  404b08:	52800000 	mov	w0, #0x0                   	// #0
  404b0c:	17ffffed 	b	0x404ac0
  404b10:	91023003 	add	x3, x0, #0x8c
  404b14:	52800000 	mov	w0, #0x0                   	// #0
  404b18:	885ffc61 	ldaxr	w1, [x3]
  404b1c:	8802fc60 	stlxr	w2, w0, [x3]
  404b20:	35ffffc2 	cbnz	w2, 0x404b18
  404b24:	36f00161 	tbz	w1, #30, 0x404b50
  404b28:	aa0303e0 	mov	x0, x3
  404b2c:	d2800c48 	mov	x8, #0x62                  	// #98
  404b30:	d2801021 	mov	x1, #0x81                  	// #129
  404b34:	d2800022 	mov	x2, #0x1                   	// #1
  404b38:	d4000001 	svc	#0x0
  404b3c:	b100981f 	cmn	x0, #0x26
  404b40:	54000081 	b.ne	0x404b50  // b.any
  404b44:	aa0303e0 	mov	x0, x3
  404b48:	aa0203e1 	mov	x1, x2
  404b4c:	d4000001 	svc	#0x0
  404b50:	d65f03c0 	ret
  404b54:	a9be7bf3 	stp	x19, x30, [sp, #-32]!
  404b58:	aa0003f3 	mov	x19, x0
  404b5c:	39007fe1 	strb	w1, [sp, #31]
  404b60:	f9401001 	ldr	x1, [x0, #32]
  404b64:	b40001a1 	cbz	x1, 0x404b98
  404b68:	a9420660 	ldp	x0, x1, [x19, #32]
  404b6c:	eb00003f 	cmp	x1, x0
  404b70:	540001e1 	b.ne	0x404bac  // b.any
  404b74:	f9402663 	ldr	x3, [x19, #72]
  404b78:	91007fe1 	add	x1, sp, #0x1f
  404b7c:	aa1303e0 	mov	x0, x19
  404b80:	d2800022 	mov	x2, #0x1                   	// #1
  404b84:	d63f0060 	blr	x3
  404b88:	f100041f 	cmp	x0, #0x1
  404b8c:	540000a1 	b.ne	0x404ba0  // b.any
  404b90:	39407fe0 	ldrb	w0, [sp, #31]
  404b94:	14000004 	b	0x404ba4
  404b98:	9400009c 	bl	0x404e08
  404b9c:	34fffe60 	cbz	w0, 0x404b68
  404ba0:	12800000 	mov	w0, #0xffffffff            	// #-1
  404ba4:	a8c27bf3 	ldp	x19, x30, [sp], #32
  404ba8:	d65f03c0 	ret
  404bac:	39407fe0 	ldrb	w0, [sp, #31]
  404bb0:	b9409262 	ldr	w2, [x19, #144]
  404bb4:	6b02001f 	cmp	w0, w2
  404bb8:	54fffde0 	b.eq	0x404b74  // b.none
  404bbc:	91000422 	add	x2, x1, #0x1
  404bc0:	f9001662 	str	x2, [x19, #40]
  404bc4:	39000020 	strb	w0, [x1]
  404bc8:	17fffff7 	b	0x404ba4
  404bcc:	d65f03c0 	ret
  404bd0:	b9407800 	ldr	w0, [x0, #120]
  404bd4:	f81f0ffe 	str	x30, [sp, #-16]!
  404bd8:	97fffe37 	bl	0x4044b4
  404bdc:	93407c00 	sxtw	x0, w0
  404be0:	d2800728 	mov	x8, #0x39                  	// #57
  404be4:	d4000001 	svc	#0x0
  404be8:	97fff366 	bl	0x401980
  404bec:	f84107fe 	ldr	x30, [sp], #16
  404bf0:	d65f03c0 	ret
  404bf4:	a9bc53f3 	stp	x19, x20, [sp, #-64]!
  404bf8:	aa0203f4 	mov	x20, x2
  404bfc:	aa0003f3 	mov	x19, x0
  404c00:	f9403002 	ldr	x2, [x0, #96]
  404c04:	a9017bf5 	stp	x21, x30, [sp, #16]
  404c08:	aa0103f5 	mov	x21, x1
  404c0c:	f100005f 	cmp	x2, #0x0
  404c10:	f9001fe2 	str	x2, [sp, #56]
  404c14:	9a9f07e3 	cset	x3, ne  // ne = any
  404c18:	cb030283 	sub	x3, x20, x3
  404c1c:	a9020fe1 	stp	x1, x3, [sp, #32]
  404c20:	f9402c01 	ldr	x1, [x0, #88]
  404c24:	f9001be1 	str	x1, [sp, #48]
  404c28:	b9807800 	ldrsw	x0, [x0, #120]
  404c2c:	b4000263 	cbz	x3, 0x404c78
  404c30:	910083e1 	add	x1, sp, #0x20
  404c34:	d2800828 	mov	x8, #0x41                  	// #65
  404c38:	d2800042 	mov	x2, #0x2                   	// #2
  404c3c:	d4000001 	svc	#0x0
  404c40:	97fff350 	bl	0x401980
  404c44:	f100001f 	cmp	x0, #0x0
  404c48:	540001cc 	b.gt	0x404c80
  404c4c:	b9400260 	ldr	w0, [x19]
  404c50:	52800401 	mov	w1, #0x20                  	// #32
  404c54:	52800202 	mov	w2, #0x10                  	// #16
  404c58:	1a821021 	csel	w1, w1, w2, ne  // ne = any
  404c5c:	2a010000 	orr	w0, w0, w1
  404c60:	d2800014 	mov	x20, #0x0                   	// #0
  404c64:	b9000260 	str	w0, [x19]
  404c68:	aa1403e0 	mov	x0, x20
  404c6c:	a9417bf5 	ldp	x21, x30, [sp, #16]
  404c70:	a8c453f3 	ldp	x19, x20, [sp], #64
  404c74:	d65f03c0 	ret
  404c78:	d28007e8 	mov	x8, #0x3f                  	// #63
  404c7c:	17fffff0 	b	0x404c3c
  404c80:	f94017e3 	ldr	x3, [sp, #40]
  404c84:	eb00007f 	cmp	x3, x0
  404c88:	54000182 	b.cs	0x404cb8  // b.hs, b.nlast
  404c8c:	cb030003 	sub	x3, x0, x3
  404c90:	a9458261 	ldp	x1, x0, [x19, #88]
  404c94:	8b030023 	add	x3, x1, x3
  404c98:	a9008e61 	stp	x1, x3, [x19, #8]
  404c9c:	b4fffe60 	cbz	x0, 0x404c68
  404ca0:	91000420 	add	x0, x1, #0x1
  404ca4:	8b1402b5 	add	x21, x21, x20
  404ca8:	f9000660 	str	x0, [x19, #8]
  404cac:	39400020 	ldrb	w0, [x1]
  404cb0:	381ff2a0 	sturb	w0, [x21, #-1]
  404cb4:	17ffffed 	b	0x404c68
  404cb8:	aa0003f4 	mov	x20, x0
  404cbc:	17ffffeb 	b	0x404c68
  404cc0:	b9407800 	ldr	w0, [x0, #120]
  404cc4:	1400017e 	b	0x4052bc
  404cc8:	a9bb53f3 	stp	x19, x20, [sp, #-80]!
  404ccc:	aa0003f3 	mov	x19, x0
  404cd0:	a9015bf5 	stp	x21, x22, [sp, #16]
  404cd4:	9100c3f4 	add	x20, sp, #0x30
  404cd8:	aa0203f5 	mov	x21, x2
  404cdc:	f9401416 	ldr	x22, [x0, #40]
  404ce0:	a9027bf7 	stp	x23, x30, [sp, #32]
  404ce4:	52800057 	mov	w23, #0x2                   	// #2
  404ce8:	f9401c00 	ldr	x0, [x0, #56]
  404cec:	a9040be1 	stp	x1, x2, [sp, #64]
  404cf0:	cb0002d6 	sub	x22, x22, x0
  404cf4:	a9035be0 	stp	x0, x22, [sp, #48]
  404cf8:	8b0202d6 	add	x22, x22, x2
  404cfc:	b9807a60 	ldrsw	x0, [x19, #120]
  404d00:	aa1403e1 	mov	x1, x20
  404d04:	93407ee2 	sxtw	x2, w23
  404d08:	d2800848 	mov	x8, #0x42                  	// #66
  404d0c:	d4000001 	svc	#0x0
  404d10:	97fff31c 	bl	0x401980
  404d14:	eb0002df 	cmp	x22, x0
  404d18:	54000141 	b.ne	0x404d40  // b.any
  404d1c:	a9458660 	ldp	x0, x1, [x19, #88]
  404d20:	f9001e60 	str	x0, [x19, #56]
  404d24:	8b010001 	add	x1, x0, x1
  404d28:	a9020261 	stp	x1, x0, [x19, #32]
  404d2c:	aa1503e0 	mov	x0, x21
  404d30:	a9415bf5 	ldp	x21, x22, [sp, #16]
  404d34:	a9427bf7 	ldp	x23, x30, [sp, #32]
  404d38:	a8c553f3 	ldp	x19, x20, [sp], #80
  404d3c:	d65f03c0 	ret
  404d40:	b6f80160 	tbz	x0, #63, 0x404d6c
  404d44:	b9400260 	ldr	w0, [x19]
  404d48:	71000aff 	cmp	w23, #0x2
  404d4c:	a9027e7f 	stp	xzr, xzr, [x19, #32]
  404d50:	321b0000 	orr	w0, w0, #0x20
  404d54:	b9000260 	str	w0, [x19]
  404d58:	f9001e7f 	str	xzr, [x19, #56]
  404d5c:	54000240 	b.eq	0x404da4  // b.none
  404d60:	f9400680 	ldr	x0, [x20, #8]
  404d64:	cb0002b5 	sub	x21, x21, x0
  404d68:	17fffff1 	b	0x404d2c
  404d6c:	f9400681 	ldr	x1, [x20, #8]
  404d70:	cb0002d6 	sub	x22, x22, x0
  404d74:	eb01001f 	cmp	x0, x1
  404d78:	54000089 	b.ls	0x404d88  // b.plast
  404d7c:	cb010000 	sub	x0, x0, x1
  404d80:	91004294 	add	x20, x20, #0x10
  404d84:	510006f7 	sub	w23, w23, #0x1
  404d88:	f9400281 	ldr	x1, [x20]
  404d8c:	8b000021 	add	x1, x1, x0
  404d90:	f9000281 	str	x1, [x20]
  404d94:	f9400681 	ldr	x1, [x20, #8]
  404d98:	cb000020 	sub	x0, x1, x0
  404d9c:	f9000680 	str	x0, [x20, #8]
  404da0:	17ffffd7 	b	0x404cfc
  404da4:	d2800015 	mov	x21, #0x0                   	// #0
  404da8:	17ffffe1 	b	0x404d2c
  404dac:	aa0003e3 	mov	x3, x0
  404db0:	90000000 	adrp	x0, 0x404000
  404db4:	91332000 	add	x0, x0, #0xcc8
  404db8:	f81e0ffe 	str	x30, [sp, #-32]!
  404dbc:	aa0103e4 	mov	x4, x1
  404dc0:	aa0203e5 	mov	x5, x2
  404dc4:	f9002460 	str	x0, [x3, #72]
  404dc8:	b9400060 	ldr	w0, [x3]
  404dcc:	37300120 	tbnz	w0, #6, 0x404df0
  404dd0:	b9807860 	ldrsw	x0, [x3, #120]
  404dd4:	910063e2 	add	x2, sp, #0x18
  404dd8:	d28003a8 	mov	x8, #0x1d                  	// #29
  404ddc:	d28a8261 	mov	x1, #0x5413                	// #21523
  404de0:	d4000001 	svc	#0x0
  404de4:	b4000060 	cbz	x0, 0x404df0
  404de8:	12800000 	mov	w0, #0xffffffff            	// #-1
  404dec:	b9009060 	str	w0, [x3, #144]
  404df0:	aa0503e2 	mov	x2, x5
  404df4:	aa0403e1 	mov	x1, x4
  404df8:	aa0303e0 	mov	x0, x3
  404dfc:	97ffffb3 	bl	0x404cc8
  404e00:	f84207fe 	ldr	x30, [sp], #32
  404e04:	d65f03c0 	ret
  404e08:	b9408802 	ldr	w2, [x0, #136]
  404e0c:	51000441 	sub	w1, w2, #0x1
  404e10:	2a020021 	orr	w1, w1, w2
  404e14:	b9008801 	str	w1, [x0, #136]
  404e18:	b9400001 	ldr	w1, [x0]
  404e1c:	361800a1 	tbz	w1, #3, 0x404e30
  404e20:	321b0021 	orr	w1, w1, #0x20
  404e24:	b9000001 	str	w1, [x0]
  404e28:	12800000 	mov	w0, #0xffffffff            	// #-1
  404e2c:	d65f03c0 	ret
  404e30:	a9458801 	ldp	x1, x2, [x0, #88]
  404e34:	a900fc1f 	stp	xzr, xzr, [x0, #8]
  404e38:	f9001401 	str	x1, [x0, #40]
  404e3c:	f9001c01 	str	x1, [x0, #56]
  404e40:	8b020021 	add	x1, x1, x2
  404e44:	f9001001 	str	x1, [x0, #32]
  404e48:	52800000 	mov	w0, #0x0                   	// #0
  404e4c:	17fffff8 	b	0x404e2c
  404e50:	14000223 	b	0x4056dc
  404e54:	a9be7bf3 	stp	x19, x30, [sp, #-32]!
  404e58:	aa0003f3 	mov	x19, x0
  404e5c:	94000232 	bl	0x405724
  404e60:	34000080 	cbz	w0, 0x404e70
  404e64:	12800000 	mov	w0, #0xffffffff            	// #-1
  404e68:	a8c27bf3 	ldp	x19, x30, [sp], #32
  404e6c:	d65f03c0 	ret
  404e70:	f9402263 	ldr	x3, [x19, #64]
  404e74:	91007fe1 	add	x1, sp, #0x1f
  404e78:	aa1303e0 	mov	x0, x19
  404e7c:	d2800022 	mov	x2, #0x1                   	// #1
  404e80:	d63f0060 	blr	x3
  404e84:	f100041f 	cmp	x0, #0x1
  404e88:	54fffee1 	b.ne	0x404e64  // b.any
  404e8c:	39407fe0 	ldrb	w0, [sp, #31]
  404e90:	17fffff6 	b	0x404e68
  404e94:	a9be53f3 	stp	x19, x20, [sp, #-32]!
  404e98:	aa0003f4 	mov	x20, x0
  404e9c:	a9017bf5 	stp	x21, x30, [sp, #16]
  404ea0:	aa0103f5 	mov	x21, x1
  404ea4:	97fffc55 	bl	0x403ff8
  404ea8:	aa0003f3 	mov	x19, x0
  404eac:	aa1503e3 	mov	x3, x21
  404eb0:	aa0003e2 	mov	x2, x0
  404eb4:	d2800021 	mov	x1, #0x1                   	// #1
  404eb8:	aa1403e0 	mov	x0, x20
  404ebc:	97fff3fc 	bl	0x401eac
  404ec0:	eb13001f 	cmp	x0, x19
  404ec4:	5a9f03e0 	csetm	w0, ne  // ne = any
  404ec8:	a9417bf5 	ldp	x21, x30, [sp, #16]
  404ecc:	a8c253f3 	ldp	x19, x20, [sp], #32
  404ed0:	d65f03c0 	ret
  404ed4:	a9bc53f3 	stp	x19, x20, [sp, #-64]!
  404ed8:	7100009f 	cmp	w4, #0x0
  404edc:	aa0303f3 	mov	x19, x3
  404ee0:	a9015bf5 	stp	x21, x22, [sp, #16]
  404ee4:	93407c35 	sxtw	x21, w1
  404ee8:	aa0003f6 	mov	x22, x0
  404eec:	a9027bf7 	stp	x23, x30, [sp, #32]
  404ef0:	52801001 	mov	w1, #0x80                  	// #128
  404ef4:	1a810094 	csel	w20, w4, w1, eq  // eq = none
  404ef8:	b40003e3 	cbz	x3, 0x404f74
  404efc:	2a0203e0 	mov	w0, w2
  404f00:	d2993fe1 	mov	x1, #0xc9ff                	// #51711
  404f04:	f9400462 	ldr	x2, [x3, #8]
  404f08:	f2a77341 	movk	x1, #0x3b9a, lsl #16
  404f0c:	eb01005f 	cmp	x2, x1
  404f10:	540000c9 	b.ls	0x404f28  // b.plast
  404f14:	528002c0 	mov	w0, #0x16                  	// #22
  404f18:	a9415bf5 	ldp	x21, x22, [sp, #16]
  404f1c:	a9427bf7 	ldp	x23, x30, [sp, #32]
  404f20:	a8c453f3 	ldp	x19, x20, [sp], #64
  404f24:	d65f03c0 	ret
  404f28:	9100c3f7 	add	x23, sp, #0x30
  404f2c:	aa1703e1 	mov	x1, x23
  404f30:	940000bd 	bl	0x405224
  404f34:	35ffff00 	cbnz	w0, 0x404f14
  404f38:	a9401662 	ldp	x2, x5, [x19]
  404f3c:	f9401be0 	ldr	x0, [sp, #48]
  404f40:	cb000042 	sub	x2, x2, x0
  404f44:	f9401fe0 	ldr	x0, [sp, #56]
  404f48:	cb0000a5 	sub	x5, x5, x0
  404f4c:	a90317e2 	stp	x2, x5, [sp, #48]
  404f50:	b6f800c5 	tbz	x5, #63, 0x404f68
  404f54:	d2994000 	mov	x0, #0xca00                	// #51712
  404f58:	d1000442 	sub	x2, x2, #0x1
  404f5c:	f2a77340 	movk	x0, #0x3b9a, lsl #16
  404f60:	8b0000a5 	add	x5, x5, x0
  404f64:	a90317e2 	stp	x2, x5, [sp, #48]
  404f68:	f9401be0 	ldr	x0, [sp, #48]
  404f6c:	b7f804a0 	tbnz	x0, #63, 0x405000
  404f70:	aa1703f3 	mov	x19, x23
  404f74:	aa1303e4 	mov	x4, x19
  404f78:	aa1503e3 	mov	x3, x21
  404f7c:	93407e82 	sxtw	x2, w20
  404f80:	aa1603e1 	mov	x1, x22
  404f84:	d2800006 	mov	x6, #0x0                   	// #0
  404f88:	d2800005 	mov	x5, #0x0                   	// #0
  404f8c:	d2800c40 	mov	x0, #0x62                  	// #98
  404f90:	97fffcc2 	bl	0x404298
  404f94:	3100981f 	cmn	w0, #0x26
  404f98:	54000121 	b.ne	0x404fbc  // b.any
  404f9c:	aa1303e4 	mov	x4, x19
  404fa0:	aa1503e3 	mov	x3, x21
  404fa4:	aa1603e1 	mov	x1, x22
  404fa8:	d2800006 	mov	x6, #0x0                   	// #0
  404fac:	d2800005 	mov	x5, #0x0                   	// #0
  404fb0:	d2800002 	mov	x2, #0x0                   	// #0
  404fb4:	d2800c40 	mov	x0, #0x62                  	// #98
  404fb8:	97fffcb8 	bl	0x404298
  404fbc:	3101b81f 	cmn	w0, #0x6e
  404fc0:	3a441804 	ccmn	w0, #0x4, #0x4, ne  // ne = any
  404fc4:	540000a0 	b.eq	0x404fd8  // b.none
  404fc8:	3101f41f 	cmn	w0, #0x7d
  404fcc:	52800fa0 	mov	w0, #0x7d                  	// #125
  404fd0:	1a8013e0 	csel	w0, wzr, w0, ne  // ne = any
  404fd4:	17ffffd1 	b	0x404f18
  404fd8:	3100101f 	cmn	w0, #0x4
  404fdc:	54000060 	b.eq	0x404fe8  // b.none
  404fe0:	4b0003e0 	neg	w0, w0
  404fe4:	17ffffcd 	b	0x404f18
  404fe8:	b0000040 	adrp	x0, 0x40d000
  404fec:	52800081 	mov	w1, #0x4                   	// #4
  404ff0:	b9446800 	ldr	w0, [x0, #1128]
  404ff4:	7100001f 	cmp	w0, #0x0
  404ff8:	1a810000 	csel	w0, w0, w1, eq  // eq = none
  404ffc:	17ffffc7 	b	0x404f18
  405000:	52800dc0 	mov	w0, #0x6e                  	// #110
  405004:	17ffffc5 	b	0x404f18
  405008:	a9bc53f3 	stp	x19, x20, [sp, #-64]!
  40500c:	aa0003f3 	mov	x19, x0
  405010:	2a0103f4 	mov	w20, w1
  405014:	52800020 	mov	w0, #0x1                   	// #1
  405018:	9100f3e1 	add	x1, sp, #0x3c
  40501c:	a9015bf5 	stp	x21, x22, [sp, #16]
  405020:	2a0203f5 	mov	w21, w2
  405024:	aa0303f6 	mov	x22, x3
  405028:	a9027bf7 	stp	x23, x30, [sp, #32]
  40502c:	2a0403f7 	mov	w23, w4
  405030:	9400004f 	bl	0x40516c
  405034:	2a1703e4 	mov	w4, w23
  405038:	aa1603e3 	mov	x3, x22
  40503c:	2a1503e2 	mov	w2, w21
  405040:	2a1403e1 	mov	w1, w20
  405044:	aa1303e0 	mov	x0, x19
  405048:	97ffffa3 	bl	0x404ed4
  40504c:	2a0003f3 	mov	w19, w0
  405050:	b9403fe0 	ldr	w0, [sp, #60]
  405054:	d2800001 	mov	x1, #0x0                   	// #0
  405058:	94000045 	bl	0x40516c
  40505c:	2a1303e0 	mov	w0, w19
  405060:	a9415bf5 	ldp	x21, x22, [sp, #16]
  405064:	a9427bf7 	ldp	x23, x30, [sp, #32]
  405068:	a8c453f3 	ldp	x19, x20, [sp], #64
  40506c:	d65f03c0 	ret
  405070:	d51bd040 	msr	tpidr_el0, x0
  405074:	52800000 	mov	w0, #0x0                   	// #0
  405078:	d65f03c0 	ret
  40507c:	a9be53f3 	stp	x19, x20, [sp, #-32]!
  405080:	aa0003f3 	mov	x19, x0
  405084:	a9017bf5 	stp	x21, x30, [sp, #16]
  405088:	aa0103f5 	mov	x21, x1
  40508c:	9400002e 	bl	0x405144
  405090:	7100401f 	cmp	w0, #0x10
  405094:	54000481 	b.ne	0x405124  // b.any
  405098:	52800ca0 	mov	w0, #0x65                  	// #101
  40509c:	71000400 	subs	w0, w0, #0x1
  4050a0:	540000a0 	b.eq	0x4050b4  // b.none
  4050a4:	b9400261 	ldr	w1, [x19]
  4050a8:	34000061 	cbz	w1, 0x4050b4
  4050ac:	b9400661 	ldr	w1, [x19, #4]
  4050b0:	34000401 	cbz	w1, 0x405130
  4050b4:	aa1303e0 	mov	x0, x19
  4050b8:	94000023 	bl	0x405144
  4050bc:	7100401f 	cmp	w0, #0x10
  4050c0:	54000321 	b.ne	0x405124  // b.any
  4050c4:	b9400262 	ldr	w2, [x19]
  4050c8:	34ffff62 	cbz	w2, 0x4050b4
  4050cc:	32010041 	orr	w1, w2, #0x80000000
  4050d0:	91001274 	add	x20, x19, #0x4
  4050d4:	885ffe80 	ldaxr	w0, [x20]
  4050d8:	11000400 	add	w0, w0, #0x1
  4050dc:	8803fe80 	stlxr	w3, w0, [x20]
  4050e0:	35ffffa3 	cbnz	w3, 0x4050d4
  4050e4:	885ffe60 	ldaxr	w0, [x19]
  4050e8:	6b00005f 	cmp	w2, w0
  4050ec:	54000260 	b.eq	0x405138  // b.none
  4050f0:	d5033bbf 	dmb	ish
  4050f4:	b9400a64 	ldr	w4, [x19, #8]
  4050f8:	aa1503e3 	mov	x3, x21
  4050fc:	aa1303e0 	mov	x0, x19
  405100:	52800002 	mov	w2, #0x0                   	// #0
  405104:	52190084 	eor	w4, w4, #0x80
  405108:	97ffffc0 	bl	0x405008
  40510c:	885ffe82 	ldaxr	w2, [x20]
  405110:	51000442 	sub	w2, w2, #0x1
  405114:	8801fe82 	stlxr	w1, w2, [x20]
  405118:	35ffffa1 	cbnz	w1, 0x40510c
  40511c:	721d781f 	tst	w0, #0xfffffffb
  405120:	54fffca0 	b.eq	0x4050b4  // b.none
  405124:	a9417bf5 	ldp	x21, x30, [sp, #16]
  405128:	a8c253f3 	ldp	x19, x20, [sp], #32
  40512c:	d65f03c0 	ret
  405130:	d5033bbf 	dmb	ish
  405134:	17ffffda 	b	0x40509c
  405138:	8800fe61 	stlxr	w0, w1, [x19]
  40513c:	35fffd40 	cbnz	w0, 0x4050e4
  405140:	17ffffed 	b	0x4050f4
  405144:	aa0003e1 	mov	x1, x0
  405148:	12b00002 	mov	w2, #0x7fffffff            	// #2147483647
  40514c:	885ffc20 	ldaxr	w0, [x1]
  405150:	34000080 	cbz	w0, 0x405160
  405154:	d5033bbf 	dmb	ish
  405158:	52800200 	mov	w0, #0x10                  	// #16
  40515c:	d65f03c0 	ret
  405160:	8800fc22 	stlxr	w0, w2, [x1]
  405164:	35ffff40 	cbnz	w0, 0x40514c
  405168:	17fffffd 	b	0x40515c
  40516c:	7100081f 	cmp	w0, #0x2
  405170:	54000148 	b.hi	0x405198  // b.pmore
  405174:	d53bd043 	mrs	x3, tpidr_el0
  405178:	b4000081 	cbz	x1, 0x405188
  40517c:	38568062 	ldurb	w2, [x3, #-152]
  405180:	12001c42 	and	w2, w2, #0xff
  405184:	b9000022 	str	w2, [x1]
  405188:	12001c00 	and	w0, w0, #0xff
  40518c:	38168060 	sturb	w0, [x3, #-152]
  405190:	52800000 	mov	w0, #0x0                   	// #0
  405194:	d65f03c0 	ret
  405198:	528002c0 	mov	w0, #0x16                  	// #22
  40519c:	17fffffe 	b	0x405194
  4051a0:	a9be53f3 	stp	x19, x20, [sp, #-32]!
  4051a4:	2a0003f3 	mov	w19, w0
  4051a8:	aa0103f4 	mov	x20, x1
  4051ac:	f0000000 	adrp	x0, 0x408000
  4051b0:	f0000001 	adrp	x1, 0x408000
  4051b4:	9122dc00 	add	x0, x0, #0x8b7
  4051b8:	91228021 	add	x1, x1, #0x8a0
  4051bc:	f9000bfe 	str	x30, [sp, #16]
  4051c0:	94000044 	bl	0x4052d0
  4051c4:	aa0003e2 	mov	x2, x0
  4051c8:	90000000 	adrp	x0, 0x405000
  4051cc:	91068000 	add	x0, x0, #0x1a0
  4051d0:	b0000021 	adrp	x1, 0x40a000
  4051d4:	910bc023 	add	x3, x1, #0x2f0
  4051d8:	c85ffc63 	ldaxr	x3, [x3]
  4051dc:	eb00007f 	cmp	x3, x0
  4051e0:	54000120 	b.eq	0x405204  // b.none
  4051e4:	d5033bbf 	dmb	ish
  4051e8:	b4000162 	cbz	x2, 0x405214
  4051ec:	aa1403e1 	mov	x1, x20
  4051f0:	2a1303e0 	mov	w0, w19
  4051f4:	f9400bfe 	ldr	x30, [sp, #16]
  4051f8:	aa0203f0 	mov	x16, x2
  4051fc:	a8c253f3 	ldp	x19, x20, [sp], #32
  405200:	d61f0200 	br	x16
  405204:	910bc024 	add	x4, x1, #0x2f0
  405208:	c803fc82 	stlxr	w3, x2, [x4]
  40520c:	35fffe43 	cbnz	w3, 0x4051d4
  405210:	17fffff6 	b	0x4051e8
  405214:	128004a0 	mov	w0, #0xffffffda            	// #-38
  405218:	f9400bfe 	ldr	x30, [sp, #16]
  40521c:	a8c253f3 	ldp	x19, x20, [sp], #32
  405220:	d65f03c0 	ret
  405224:	b0000022 	adrp	x2, 0x40a000
  405228:	a9be53f3 	stp	x19, x20, [sp, #-32]!
  40522c:	2a0003f4 	mov	w20, w0
  405230:	f9417842 	ldr	x2, [x2, #752]
  405234:	f9000bfe 	str	x30, [sp, #16]
  405238:	aa0103f3 	mov	x19, x1
  40523c:	b4000102 	cbz	x2, 0x40525c
  405240:	d63f0040 	blr	x2
  405244:	34000300 	cbz	w0, 0x4052a4
  405248:	3100581f 	cmn	w0, #0x16
  40524c:	54000081 	b.ne	0x40525c  // b.any
  405250:	928002a0 	mov	x0, #0xffffffffffffffea    	// #-22
  405254:	97fff1cb 	bl	0x401980
  405258:	14000013 	b	0x4052a4
  40525c:	93407e80 	sxtw	x0, w20
  405260:	aa1303e1 	mov	x1, x19
  405264:	d2800e28 	mov	x8, #0x71                  	// #113
  405268:	d4000001 	svc	#0x0
  40526c:	2a0003e1 	mov	w1, w0
  405270:	3100981f 	cmn	w0, #0x26
  405274:	54000201 	b.ne	0x4052b4  // b.any
  405278:	350001d4 	cbnz	w20, 0x4052b0
  40527c:	d2801528 	mov	x8, #0xa9                  	// #169
  405280:	aa1303e0 	mov	x0, x19
  405284:	d2800001 	mov	x1, #0x0                   	// #0
  405288:	d4000001 	svc	#0x0
  40528c:	f9400660 	ldr	x0, [x19, #8]
  405290:	52807d01 	mov	w1, #0x3e8                 	// #1000
  405294:	1b017c00 	mul	w0, w0, w1
  405298:	93407c00 	sxtw	x0, w0
  40529c:	f9000660 	str	x0, [x19, #8]
  4052a0:	52800000 	mov	w0, #0x0                   	// #0
  4052a4:	f9400bfe 	ldr	x30, [sp, #16]
  4052a8:	a8c253f3 	ldp	x19, x20, [sp], #32
  4052ac:	d65f03c0 	ret
  4052b0:	128002a1 	mov	w1, #0xffffffea            	// #-22
  4052b4:	93407c20 	sxtw	x0, w1
  4052b8:	17ffffe7 	b	0x405254
  4052bc:	d28007c8 	mov	x8, #0x3e                  	// #62
  4052c0:	93407c00 	sxtw	x0, w0
  4052c4:	93407c42 	sxtw	x2, w2
  4052c8:	d4000001 	svc	#0x0
  4052cc:	17fff1ad 	b	0x401980
  4052d0:	90000042 	adrp	x2, 0x40d000
  4052d4:	a9ba53f3 	stp	x19, x20, [sp, #-96]!
  4052d8:	f9425445 	ldr	x5, [x2, #1192]
  4052dc:	a90263f7 	stp	x23, x24, [sp, #32]
  4052e0:	aa0003f8 	mov	x24, x0
  4052e4:	aa0103f7 	mov	x23, x1
  4052e8:	f94000a2 	ldr	x2, [x5]
  4052ec:	f9002bfe 	str	x30, [sp, #80]
  4052f0:	f100845f 	cmp	x2, #0x21
  4052f4:	540012e0 	b.eq	0x405550  // b.none
  4052f8:	d2800004 	mov	x4, #0x0                   	// #0
  4052fc:	14000005 	b	0x405310
  405300:	f86378a2 	ldr	x2, [x5, x3, lsl #3]
  405304:	f100845f 	cmp	x2, #0x21
  405308:	54000120 	b.eq	0x40532c  // b.none
  40530c:	aa0303e4 	mov	x4, x3
  405310:	91000883 	add	x3, x4, #0x2
  405314:	b5ffff62 	cbnz	x2, 0x405300
  405318:	d2800000 	mov	x0, #0x0                   	// #0
  40531c:	a94263f7 	ldp	x23, x24, [sp, #32]
  405320:	f9402bfe 	ldr	x30, [sp, #80]
  405324:	a8c653f3 	ldp	x19, x20, [sp], #96
  405328:	d65f03c0 	ret
  40532c:	91000c84 	add	x4, x4, #0x3
  405330:	d37df084 	lsl	x4, x4, #3
  405334:	f86468a6 	ldr	x6, [x5, x4]
  405338:	b4ffff06 	cbz	x6, 0x405318
  40533c:	794070c0 	ldrh	w0, [x6, #56]
  405340:	f94010c2 	ldr	x2, [x6, #32]
  405344:	8b0200c2 	add	x2, x6, x2
  405348:	b4fffe80 	cbz	x0, 0x405318
  40534c:	79406cc1 	ldrh	w1, [x6, #54]
  405350:	92800014 	mov	x20, #0xffffffffffffffff    	// #-1
  405354:	d2800003 	mov	x3, #0x0                   	// #0
  405358:	d2800004 	mov	x4, #0x0                   	// #0
  40535c:	14000009 	b	0x405380
  405360:	710008bf 	cmp	w5, #0x2
  405364:	54000061 	b.ne	0x405370  // b.any
  405368:	f9400443 	ldr	x3, [x2, #8]
  40536c:	8b0300c3 	add	x3, x6, x3
  405370:	91000484 	add	x4, x4, #0x1
  405374:	8b010042 	add	x2, x2, x1
  405378:	eb04001f 	cmp	x0, x4
  40537c:	54000160 	b.eq	0x4053a8  // b.none
  405380:	b9400045 	ldr	w5, [x2]
  405384:	710004bf 	cmp	w5, #0x1
  405388:	54fffec1 	b.ne	0x405360  // b.any
  40538c:	a9409454 	ldp	x20, x5, [x2, #8]
  405390:	91000484 	add	x4, x4, #0x1
  405394:	8b010042 	add	x2, x2, x1
  405398:	eb04001f 	cmp	x0, x4
  40539c:	8b1400d4 	add	x20, x6, x20
  4053a0:	cb050294 	sub	x20, x20, x5
  4053a4:	54fffee1 	b.ne	0x405380  // b.any
  4053a8:	f100007f 	cmp	x3, #0x0
  4053ac:	ba411a84 	ccmn	x20, #0x1, #0x4, ne  // ne = any
  4053b0:	54fffb40 	b.eq	0x405318  // b.none
  4053b4:	f9400073 	ldr	x19, [x3]
  4053b8:	b4fffb13 	cbz	x19, 0x405318
  4053bc:	d29ffe01 	mov	x1, #0xfff0                	// #65520
  4053c0:	d29fff80 	mov	x0, #0xfffc                	// #65532
  4053c4:	91002063 	add	x3, x3, #0x8
  4053c8:	f2adffe1 	movk	x1, #0x6fff, lsl #16
  4053cc:	f2adffe0 	movk	x0, #0x6fff, lsl #16
  4053d0:	a9015bf5 	stp	x21, x22, [sp, #16]
  4053d4:	d2800016 	mov	x22, #0x0                   	// #0
  4053d8:	d2800015 	mov	x21, #0x0                   	// #0
  4053dc:	a9036bf9 	stp	x25, x26, [sp, #48]
  4053e0:	d280001a 	mov	x26, #0x0                   	// #0
  4053e4:	d2800019 	mov	x25, #0x0                   	// #0
  4053e8:	a90473fb 	stp	x27, x28, [sp, #64]
  4053ec:	d280001b 	mov	x27, #0x0                   	// #0
  4053f0:	14000008 	b	0x405410
  4053f4:	f100127f 	cmp	x19, #0x4
  4053f8:	54000340 	b.eq	0x405460  // b.none
  4053fc:	f100167f 	cmp	x19, #0x5
  405400:	9a8212b5 	csel	x21, x21, x2, ne  // ne = any
  405404:	f9400473 	ldr	x19, [x3, #8]
  405408:	91004063 	add	x3, x3, #0x10
  40540c:	b40001b3 	cbz	x19, 0x405440
  405410:	f9400062 	ldr	x2, [x3]
  405414:	f1001a7f 	cmp	x19, #0x6
  405418:	8b020282 	add	x2, x20, x2
  40541c:	540002a0 	b.eq	0x405470  // b.none
  405420:	54fffea9 	b.ls	0x4053f4  // b.plast
  405424:	eb01027f 	cmp	x19, x1
  405428:	54000200 	b.eq	0x405468  // b.none
  40542c:	91004063 	add	x3, x3, #0x10
  405430:	eb00027f 	cmp	x19, x0
  405434:	9a8212d6 	csel	x22, x22, x2, ne  // ne = any
  405438:	f85f8073 	ldur	x19, [x3, #-8]
  40543c:	b5fffeb3 	cbnz	x19, 0x405410
  405440:	f10002bf 	cmp	x21, #0x0
  405444:	fa401b24 	ccmp	x25, #0x0, #0x4, ne  // ne = any
  405448:	fa401b44 	ccmp	x26, #0x0, #0x4, ne  // ne = any
  40544c:	54000161 	b.ne	0x405478  // b.any
  405450:	a9415bf5 	ldp	x21, x22, [sp, #16]
  405454:	a9436bf9 	ldp	x25, x26, [sp, #48]
  405458:	a94473fb 	ldp	x27, x28, [sp, #64]
  40545c:	17ffffaf 	b	0x405318
  405460:	aa0203fa 	mov	x26, x2
  405464:	17ffffe8 	b	0x405404
  405468:	aa0203fb 	mov	x27, x2
  40546c:	17ffffe6 	b	0x405404
  405470:	aa0203f9 	mov	x25, x2
  405474:	17ffffe4 	b	0x405404
  405478:	b9400742 	ldr	w2, [x26, #4]
  40547c:	f10002df 	cmp	x22, #0x0
  405480:	9a9f137b 	csel	x27, x27, xzr, ne  // ne = any
  405484:	34fffe62 	cbz	w2, 0x405450
  405488:	528004fc 	mov	w28, #0x27                  	// #39
  40548c:	528080c3 	mov	w3, #0x406                 	// #1030
  405490:	39401320 	ldrb	w0, [x25, #4]
  405494:	12000c01 	and	w1, w0, #0xf
  405498:	1ac12b81 	asr	w1, w28, w1
  40549c:	36000361 	tbz	w1, #0, 0x405508
  4054a0:	53047c00 	lsr	w0, w0, #4
  4054a4:	1ac02860 	asr	w0, w3, w0
  4054a8:	36000300 	tbz	w0, #0, 0x405508
  4054ac:	79400f20 	ldrh	w0, [x25, #6]
  4054b0:	340002c0 	cbz	w0, 0x405508
  4054b4:	b9400321 	ldr	w1, [x25]
  4054b8:	aa1703e0 	mov	x0, x23
  4054bc:	8b0102a1 	add	x1, x21, x1
  4054c0:	940000c2 	bl	0x4057c8
  4054c4:	528080c3 	mov	w3, #0x406                 	// #1030
  4054c8:	350001e0 	cbnz	w0, 0x405504
  4054cc:	b400037b 	cbz	x27, 0x405538
  4054d0:	78737b61 	ldrh	w1, [x27, x19, lsl #1]
  4054d4:	aa1603e2 	mov	x2, x22
  4054d8:	12003821 	and	w1, w1, #0x7fff
  4054dc:	d503201f 	nop
  4054e0:	79400440 	ldrh	w0, [x2, #2]
  4054e4:	370000a0 	tbnz	w0, #0, 0x4054f8
  4054e8:	79400840 	ldrh	w0, [x2, #4]
  4054ec:	12003800 	and	w0, w0, #0x7fff
  4054f0:	6b00003f 	cmp	w1, w0
  4054f4:	54000140 	b.eq	0x40551c  // b.none
  4054f8:	b9401040 	ldr	w0, [x2, #16]
  4054fc:	8b204042 	add	x2, x2, w0, uxtw
  405500:	35ffff00 	cbnz	w0, 0x4054e0
  405504:	b9400742 	ldr	w2, [x26, #4]
  405508:	91000673 	add	x19, x19, #0x1
  40550c:	91006339 	add	x25, x25, #0x18
  405510:	eb22427f 	cmp	x19, w2, uxtw
  405514:	54fffbe3 	b.cc	0x405490  // b.lo, b.ul, b.last
  405518:	17ffffce 	b	0x405450
  40551c:	b9400c41 	ldr	w1, [x2, #12]
  405520:	aa1803e0 	mov	x0, x24
  405524:	b8616841 	ldr	w1, [x2, x1]
  405528:	8b0102a1 	add	x1, x21, x1
  40552c:	940000a7 	bl	0x4057c8
  405530:	528080c3 	mov	w3, #0x406                 	// #1030
  405534:	35fffe80 	cbnz	w0, 0x405504
  405538:	f9400720 	ldr	x0, [x25, #8]
  40553c:	a9415bf5 	ldp	x21, x22, [sp, #16]
  405540:	8b000280 	add	x0, x20, x0
  405544:	a9436bf9 	ldp	x25, x26, [sp, #48]
  405548:	a94473fb 	ldp	x27, x28, [sp, #64]
  40554c:	17ffff74 	b	0x40531c
  405550:	d2800104 	mov	x4, #0x8                   	// #8
  405554:	17ffff78 	b	0x405334
  405558:	b4000080 	cbz	x0, 0x405568
  40555c:	7101fc3f 	cmp	w1, #0x7f
  405560:	54000108 	b.hi	0x405580  // b.pmore
  405564:	39000001 	strb	w1, [x0]
  405568:	d2800020 	mov	x0, #0x1                   	// #1
  40556c:	d65f03c0 	ret
  405570:	39000001 	strb	w1, [x0]
  405574:	d2800020 	mov	x0, #0x1                   	// #1
  405578:	f84107fe 	ldr	x30, [sp], #16
  40557c:	d65f03c0 	ret
  405580:	d53bd042 	mrs	x2, tpidr_el0
  405584:	f85d0042 	ldur	x2, [x2, #-48]
  405588:	f81f0ffe 	str	x30, [sp, #-16]!
  40558c:	f9400042 	ldr	x2, [x2]
  405590:	b5000142 	cbnz	x2, 0x4055b8
  405594:	129befe2 	mov	w2, #0xffff2080            	// #-57216
  405598:	0b020022 	add	w2, w1, w2
  40559c:	7101fc5f 	cmp	w2, #0x7f
  4055a0:	54fffe89 	b.ls	0x405570  // b.plast
  4055a4:	97fffc9a 	bl	0x40480c
  4055a8:	52800a81 	mov	w1, #0x54                  	// #84
  4055ac:	b9000001 	str	w1, [x0]
  4055b0:	92800000 	mov	x0, #0xffffffffffffffff    	// #-1
  4055b4:	17fffff1 	b	0x405578
  4055b8:	711ffc3f 	cmp	w1, #0x7ff
  4055bc:	54000128 	b.hi	0x4055e0  // b.pmore
  4055c0:	53067c22 	lsr	w2, w1, #6
  4055c4:	12001421 	and	w1, w1, #0x3f
  4055c8:	321a6442 	orr	w2, w2, #0xffffffc0
  4055cc:	32196021 	orr	w1, w1, #0xffffff80
  4055d0:	39000002 	strb	w2, [x0]
  4055d4:	39000401 	strb	w1, [x0, #1]
  4055d8:	d2800040 	mov	x0, #0x2                   	// #2
  4055dc:	17ffffe7 	b	0x405578
  4055e0:	51403823 	sub	w3, w1, #0xe, lsl #12
  4055e4:	5283ffe2 	mov	w2, #0x1fff                	// #8191
  4055e8:	6b02007f 	cmp	w3, w2
  4055ec:	529affe2 	mov	w2, #0xd7ff                	// #55295
  4055f0:	7a428020 	ccmp	w1, w2, #0x0, hi  // hi = pmore
  4055f4:	54000188 	b.hi	0x405624  // b.pmore
  4055f8:	530c7c22 	lsr	w2, w1, #12
  4055fc:	321b6842 	orr	w2, w2, #0xffffffe0
  405600:	39000002 	strb	w2, [x0]
  405604:	d3462c22 	ubfx	x2, x1, #6, #6
  405608:	12001421 	and	w1, w1, #0x3f
  40560c:	32196042 	orr	w2, w2, #0xffffff80
  405610:	32196021 	orr	w1, w1, #0xffffff80
  405614:	39000402 	strb	w2, [x0, #1]
  405618:	39000801 	strb	w1, [x0, #2]
  40561c:	d2800060 	mov	x0, #0x3                   	// #3
  405620:	17ffffd6 	b	0x405578
  405624:	51404023 	sub	w3, w1, #0x10, lsl #12
  405628:	12bffe02 	mov	w2, #0xfffff               	// #1048575
  40562c:	6b02007f 	cmp	w3, w2
  405630:	54fffba8 	b.hi	0x4055a4  // b.pmore
  405634:	53127c22 	lsr	w2, w1, #18
  405638:	321c6c42 	orr	w2, w2, #0xfffffff0
  40563c:	39000002 	strb	w2, [x0]
  405640:	d34c4422 	ubfx	x2, x1, #12, #6
  405644:	32196042 	orr	w2, w2, #0xffffff80
  405648:	39000402 	strb	w2, [x0, #1]
  40564c:	d3462c22 	ubfx	x2, x1, #6, #6
  405650:	12001421 	and	w1, w1, #0x3f
  405654:	32196042 	orr	w2, w2, #0xffffff80
  405658:	32196021 	orr	w1, w1, #0xffffff80
  40565c:	39000802 	strb	w2, [x0, #2]
  405660:	39000c01 	strb	w1, [x0, #3]
  405664:	d2800080 	mov	x0, #0x4                   	// #4
  405668:	17ffffc4 	b	0x405578
  40566c:	b4000360 	cbz	x0, 0x4056d8
  405670:	a9bf7bf3 	stp	x19, x30, [sp, #-16]!
  405674:	aa0003f3 	mov	x19, x0
  405678:	b9408c01 	ldr	w1, [x0, #140]
  40567c:	37f80041 	tbnz	w1, #31, 0x405684
  405680:	97fffcf8 	bl	0x404a60
  405684:	f9401661 	ldr	x1, [x19, #40]
  405688:	f9401e60 	ldr	x0, [x19, #56]
  40568c:	eb00003f 	cmp	x1, x0
  405690:	540000c0 	b.eq	0x4056a8  // b.none
  405694:	f9402663 	ldr	x3, [x19, #72]
  405698:	aa1303e0 	mov	x0, x19
  40569c:	d2800002 	mov	x2, #0x0                   	// #0
  4056a0:	d2800001 	mov	x1, #0x0                   	// #0
  4056a4:	d63f0060 	blr	x3
  4056a8:	a9408261 	ldp	x1, x0, [x19, #8]
  4056ac:	eb00003f 	cmp	x1, x0
  4056b0:	54000100 	b.eq	0x4056d0  // b.none
  4056b4:	cb000021 	sub	x1, x1, x0
  4056b8:	aa1303e0 	mov	x0, x19
  4056bc:	f9402a63 	ldr	x3, [x19, #80]
  4056c0:	52800022 	mov	w2, #0x1                   	// #1
  4056c4:	a8c17bf3 	ldp	x19, x30, [sp], #16
  4056c8:	aa0303f0 	mov	x16, x3
  4056cc:	d61f0200 	br	x16
  4056d0:	a8c17bf3 	ldp	x19, x30, [sp], #16
  4056d4:	d65f03c0 	ret
  4056d8:	d65f03c0 	ret
  4056dc:	a9bf7bf3 	stp	x19, x30, [sp, #-16]!
  4056e0:	9400002e 	bl	0x405798
  4056e4:	f9400013 	ldr	x19, [x0]
  4056e8:	b5000173 	cbnz	x19, 0x405714
  4056ec:	b0000020 	adrp	x0, 0x40a000
  4056f0:	f940f800 	ldr	x0, [x0, #496]
  4056f4:	97ffffde 	bl	0x40566c
  4056f8:	b0000020 	adrp	x0, 0x40a000
  4056fc:	f9417000 	ldr	x0, [x0, #736]
  405700:	97ffffdb 	bl	0x40566c
  405704:	a8c17bf3 	ldp	x19, x30, [sp], #16
  405708:	b0000020 	adrp	x0, 0x40a000
  40570c:	f9408000 	ldr	x0, [x0, #256]
  405710:	17ffffd7 	b	0x40566c
  405714:	aa1303e0 	mov	x0, x19
  405718:	97ffffd5 	bl	0x40566c
  40571c:	f9403a73 	ldr	x19, [x19, #112]
  405720:	17fffff2 	b	0x4056e8
  405724:	a9bf7bf3 	stp	x19, x30, [sp, #-16]!
  405728:	aa0003f3 	mov	x19, x0
  40572c:	b9408802 	ldr	w2, [x0, #136]
  405730:	51000441 	sub	w1, w2, #0x1
  405734:	2a020021 	orr	w1, w1, w2
  405738:	b9008801 	str	w1, [x0, #136]
  40573c:	f9401402 	ldr	x2, [x0, #40]
  405740:	f9401c01 	ldr	x1, [x0, #56]
  405744:	eb01005f 	cmp	x2, x1
  405748:	540000a0 	b.eq	0x40575c  // b.none
  40574c:	f9402403 	ldr	x3, [x0, #72]
  405750:	d2800002 	mov	x2, #0x0                   	// #0
  405754:	d2800001 	mov	x1, #0x0                   	// #0
  405758:	d63f0060 	blr	x3
  40575c:	b9400260 	ldr	w0, [x19]
  405760:	a9027e7f 	stp	xzr, xzr, [x19, #32]
  405764:	f9001e7f 	str	xzr, [x19, #56]
  405768:	361000c0 	tbz	w0, #2, 0x405780
  40576c:	321b0000 	orr	w0, w0, #0x20
  405770:	b9000260 	str	w0, [x19]
  405774:	12800000 	mov	w0, #0xffffffff            	// #-1
  405778:	a8c17bf3 	ldp	x19, x30, [sp], #16
  40577c:	d65f03c0 	ret
  405780:	a9458a61 	ldp	x1, x2, [x19, #88]
  405784:	93441000 	sbfx	x0, x0, #4, #1
  405788:	8b020021 	add	x1, x1, x2
  40578c:	a9008661 	stp	x1, x1, [x19, #8]
  405790:	17fffffa 	b	0x405778
  405794:	17ffffd2 	b	0x4056dc
  405798:	f81f0ffe 	str	x30, [sp, #-16]!
  40579c:	90000040 	adrp	x0, 0x40d000
  4057a0:	91120000 	add	x0, x0, #0x480
  4057a4:	97fffa5e 	bl	0x40411c
  4057a8:	90000040 	adrp	x0, 0x40d000
  4057ac:	9111e000 	add	x0, x0, #0x478
  4057b0:	f84107fe 	ldr	x30, [sp], #16
  4057b4:	d65f03c0 	ret
  4057b8:	90000040 	adrp	x0, 0x40d000
  4057bc:	91120000 	add	x0, x0, #0x480
  4057c0:	17fffa97 	b	0x40421c
  4057c4:	d503201f 	nop
  4057c8:	39400003 	ldrb	w3, [x0]
  4057cc:	d1000424 	sub	x4, x1, #0x1
  4057d0:	39400021 	ldrb	w1, [x1]
  4057d4:	d2800022 	mov	x2, #0x1                   	// #1
  4057d8:	6b03003f 	cmp	w1, w3
  4057dc:	540000e1 	b.ne	0x4057f8  // b.any
  4057e0:	340000c3 	cbz	w3, 0x4057f8
  4057e4:	38626803 	ldrb	w3, [x0, x2]
  4057e8:	91000442 	add	x2, x2, #0x1
  4057ec:	38626881 	ldrb	w1, [x4, x2]
  4057f0:	6b01007f 	cmp	w3, w1
  4057f4:	54ffff60 	b.eq	0x4057e0  // b.none
  4057f8:	4b010060 	sub	w0, w3, w1
  4057fc:	d65f03c0 	ret
  405800:	a9bd7bfd 	stp	x29, x30, [sp, #-48]!
  405804:	910003fd 	mov	x29, sp
  405808:	3d8007e0 	str	q0, [sp, #16]
  40580c:	3d800be1 	str	q1, [sp, #32]
  405810:	a94107e6 	ldp	x6, x1, [sp, #16]
  405814:	a9420fe0 	ldp	x0, x3, [sp, #32]
  405818:	d53b440f 	mrs	x15, fpcr
  40581c:	d37ffc27 	lsr	x7, x1, #63
  405820:	aa0003ea 	mov	x10, x0
  405824:	d37dbc64 	ubfiz	x4, x3, #3, #48
  405828:	d37ffc65 	lsr	x5, x3, #63
  40582c:	aa0703ec 	mov	x12, x7
  405830:	d37dbc22 	ubfiz	x2, x1, #3, #48
  405834:	aa40f484 	orr	x4, x4, x0, lsr #61
  405838:	d370f828 	ubfx	x8, x1, #48, #15
  40583c:	d370f860 	ubfx	x0, x3, #48, #15
  405840:	12001ce7 	and	w7, w7, #0xff
  405844:	aa0c03f0 	mov	x16, x12
  405848:	eb05019f 	cmp	x12, x5
  40584c:	12001cab 	and	w11, w5, #0xff
  405850:	aa46f442 	orr	x2, x2, x6, lsr #61
  405854:	aa0803e1 	mov	x1, x8
  405858:	d37df0c9 	lsl	x9, x6, #3
  40585c:	aa0003e3 	mov	x3, x0
  405860:	d37df14d 	lsl	x13, x10, #3
  405864:	54000d60 	b.eq	0x405a10  // b.none
  405868:	4b000100 	sub	w0, w8, w0
  40586c:	7100001f 	cmp	w0, #0x0
  405870:	54000a6d 	b.le	0x4059bc
  405874:	b4000fe3 	cbz	x3, 0x405a70
  405878:	b24d0084 	orr	x4, x4, #0x8000000000000
  40587c:	d28fffe3 	mov	x3, #0x7fff                	// #32767
  405880:	eb03003f 	cmp	x1, x3
  405884:	54001f80 	b.eq	0x405c74  // b.none
  405888:	7101d01f 	cmp	w0, #0x74
  40588c:	5400236c 	b.gt	0x405cf8
  405890:	7100fc1f 	cmp	w0, #0x3f
  405894:	54002e2c 	b.gt	0x405e58
  405898:	52800803 	mov	w3, #0x40                  	// #64
  40589c:	4b000063 	sub	w3, w3, w0
  4058a0:	9ac025a6 	lsr	x6, x13, x0
  4058a4:	9ac321ad 	lsl	x13, x13, x3
  4058a8:	f10001bf 	cmp	x13, #0x0
  4058ac:	9a9f07e5 	cset	x5, ne  // ne = any
  4058b0:	9ac32083 	lsl	x3, x4, x3
  4058b4:	aa060063 	orr	x3, x3, x6
  4058b8:	9ac02480 	lsr	x0, x4, x0
  4058bc:	aa050063 	orr	x3, x3, x5
  4058c0:	cb000042 	sub	x2, x2, x0
  4058c4:	eb030129 	subs	x9, x9, x3
  4058c8:	da1f0042 	sbc	x2, x2, xzr
  4058cc:	9240c843 	and	x3, x2, #0x7ffffffffffff
  4058d0:	b6980f02 	tbz	x2, #51, 0x405ab0
  4058d4:	b4002043 	cbz	x3, 0x405cdc
  4058d8:	dac01060 	clz	x0, x3
  4058dc:	51003000 	sub	w0, w0, #0xc
  4058e0:	4b0003e2 	neg	w2, w0
  4058e4:	9ac02064 	lsl	x4, x3, x0
  4058e8:	9ac02123 	lsl	x3, x9, x0
  4058ec:	9ac22529 	lsr	x9, x9, x2
  4058f0:	aa040122 	orr	x2, x9, x4
  4058f4:	eb20c03f 	cmp	x1, w0, sxtw
  4058f8:	93407c04 	sxtw	x4, w0
  4058fc:	54001e0c 	b.gt	0x405cbc
  405900:	4b010001 	sub	w1, w0, w1
  405904:	11000420 	add	w0, w1, #0x1
  405908:	7100fc1f 	cmp	w0, #0x3f
  40590c:	540028ac 	b.gt	0x405e20
  405910:	52800801 	mov	w1, #0x40                  	// #64
  405914:	4b000021 	sub	w1, w1, w0
  405918:	9ac02464 	lsr	x4, x3, x0
  40591c:	9ac12063 	lsl	x3, x3, x1
  405920:	f100007f 	cmp	x3, #0x0
  405924:	9ac12049 	lsl	x9, x2, x1
  405928:	9a9f07e1 	cset	x1, ne  // ne = any
  40592c:	aa040129 	orr	x9, x9, x4
  405930:	9ac02442 	lsr	x2, x2, x0
  405934:	aa010129 	orr	x9, x9, x1
  405938:	aa020128 	orr	x8, x9, x2
  40593c:	b4000c48 	cbz	x8, 0x405ac4
  405940:	92400920 	and	x0, x9, #0x7
  405944:	d2800001 	mov	x1, #0x0                   	// #0
  405948:	52800025 	mov	w5, #0x1                   	// #1
  40594c:	b4001de0 	cbz	x0, 0x405d08
  405950:	926a05e3 	and	x3, x15, #0xc00000
  405954:	f150007f 	cmp	x3, #0x400, lsl #12
  405958:	540017a0 	b.eq	0x405c4c  // b.none
  40595c:	f160007f 	cmp	x3, #0x800, lsl #12
  405960:	54001660 	b.eq	0x405c2c  // b.none
  405964:	b40017a3 	cbz	x3, 0x405c58
  405968:	924d0043 	and	x3, x2, #0x8000000000000
  40596c:	52800200 	mov	w0, #0x10                  	// #16
  405970:	34000045 	cbz	w5, 0x405978
  405974:	321d0000 	orr	w0, w0, #0x8
  405978:	b40018c3 	cbz	x3, 0x405c90
  40597c:	91000421 	add	x1, x1, #0x1
  405980:	d28fffe3 	mov	x3, #0x7fff                	// #32767
  405984:	eb03003f 	cmp	x1, x3
  405988:	54000f60 	b.eq	0x405b74  // b.none
  40598c:	12003821 	and	w1, w1, #0x7fff
  405990:	93c90c48 	extr	x8, x2, x9, #3
  405994:	d343c842 	ubfx	x2, x2, #3, #48
  405998:	d2800005 	mov	x5, #0x0                   	// #0
  40599c:	2a073c21 	orr	w1, w1, w7, lsl #15
  4059a0:	b340bc45 	bfxil	x5, x2, #0, #48
  4059a4:	9e670100 	fmov	d0, x8
  4059a8:	b3503c25 	bfi	x5, x1, #48, #16
  4059ac:	9eaf00a0 	fmov	v0.d[1], x5
  4059b0:	35001100 	cbnz	w0, 0x405bd0
  4059b4:	a8c37bfd 	ldp	x29, x30, [sp], #48
  4059b8:	d65f03c0 	ret
  4059bc:	aa0503ee 	mov	x14, x5
  4059c0:	540008e0 	b.eq	0x405adc  // b.none
  4059c4:	b5001ce8 	cbnz	x8, 0x405d60
  4059c8:	aa090041 	orr	x1, x2, x9
  4059cc:	b4000601 	cbz	x1, 0x405a8c
  4059d0:	3100041f 	cmn	w0, #0x1
  4059d4:	54003d40 	b.eq	0x40617c  // b.none
  4059d8:	d28fffe1 	mov	x1, #0x7fff                	// #32767
  4059dc:	2a2003e0 	mvn	w0, w0
  4059e0:	eb01007f 	cmp	x3, x1
  4059e4:	54001c81 	b.ne	0x405d74  // b.any
  4059e8:	aa0d0080 	orr	x0, x4, x13
  4059ec:	b5003740 	cbnz	x0, 0x4060d4
  4059f0:	aa0e03f0 	mov	x16, x14
  4059f4:	d503201f 	nop
  4059f8:	d2800004 	mov	x4, #0x0                   	// #0
  4059fc:	9e670080 	fmov	d0, x4
  405a00:	d3410210 	lsl	x16, x16, #63
  405a04:	b2503a05 	orr	x5, x16, #0x7fff000000000000
  405a08:	9eaf00a0 	fmov	v0.d[1], x5
  405a0c:	17ffffea 	b	0x4059b4
  405a10:	4b000105 	sub	w5, w8, w0
  405a14:	710000bf 	cmp	w5, #0x0
  405a18:	54000e6d 	b.le	0x405be4
  405a1c:	b4000840 	cbz	x0, 0x405b24
  405a20:	b24d0084 	orr	x4, x4, #0x8000000000000
  405a24:	d28fffe0 	mov	x0, #0x7fff                	// #32767
  405a28:	eb00003f 	cmp	x1, x0
  405a2c:	54001240 	b.eq	0x405c74  // b.none
  405a30:	7101d0bf 	cmp	w5, #0x74
  405a34:	54001eac 	b.gt	0x405e08
  405a38:	7100fcbf 	cmp	w5, #0x3f
  405a3c:	5400266c 	b.gt	0x405f08
  405a40:	52800800 	mov	w0, #0x40                  	// #64
  405a44:	4b050000 	sub	w0, w0, w5
  405a48:	9ac525a6 	lsr	x6, x13, x5
  405a4c:	9ac021ad 	lsl	x13, x13, x0
  405a50:	f10001bf 	cmp	x13, #0x0
  405a54:	9ac02080 	lsl	x0, x4, x0
  405a58:	9a9f07e3 	cset	x3, ne  // ne = any
  405a5c:	aa060000 	orr	x0, x0, x6
  405a60:	9ac52484 	lsr	x4, x4, x5
  405a64:	aa030000 	orr	x0, x0, x3
  405a68:	8b040042 	add	x2, x2, x4
  405a6c:	140000ea 	b	0x405e14
  405a70:	aa0d0083 	orr	x3, x4, x13
  405a74:	b4001b83 	cbz	x3, 0x405de4
  405a78:	71000400 	subs	w0, w0, #0x1
  405a7c:	54fff001 	b.ne	0x40587c  // b.any
  405a80:	eb0d0129 	subs	x9, x9, x13
  405a84:	da040042 	sbc	x2, x2, x4
  405a88:	17ffff91 	b	0x4058cc
  405a8c:	d28fffe0 	mov	x0, #0x7fff                	// #32767
  405a90:	eb00007f 	cmp	x3, x0
  405a94:	540039a0 	b.eq	0x4061c8  // b.none
  405a98:	2a0b03e7 	mov	w7, w11
  405a9c:	aa0403e2 	mov	x2, x4
  405aa0:	aa0d03e9 	mov	x9, x13
  405aa4:	aa0303e1 	mov	x1, x3
  405aa8:	aa0503ec 	mov	x12, x5
  405aac:	d503201f 	nop
  405ab0:	aa020128 	orr	x8, x9, x2
  405ab4:	92400920 	and	x0, x9, #0x7
  405ab8:	52800005 	mov	w5, #0x0                   	// #0
  405abc:	b5fff481 	cbnz	x1, 0x40594c
  405ac0:	b5fff408 	cbnz	x8, 0x405940
  405ac4:	d2800002 	mov	x2, #0x0                   	// #0
  405ac8:	d2800001 	mov	x1, #0x0                   	// #0
  405acc:	52800000 	mov	w0, #0x0                   	// #0
  405ad0:	9240bc42 	and	x2, x2, #0xffffffffffff
  405ad4:	12003821 	and	w1, w1, #0x7fff
  405ad8:	17ffffb0 	b	0x405998
  405adc:	91000505 	add	x5, x8, #0x1
  405ae0:	f27f34bf 	tst	x5, #0x7ffe
  405ae4:	54001681 	b.ne	0x405db4  // b.any
  405ae8:	aa090045 	orr	x5, x2, x9
  405aec:	aa0d0088 	orr	x8, x4, x13
  405af0:	b5002421 	cbnz	x1, 0x405f74
  405af4:	b4002945 	cbz	x5, 0x40601c
  405af8:	b40029c8 	cbz	x8, 0x406030
  405afc:	eb0d0125 	subs	x5, x9, x13
  405b00:	eb0d013f 	cmp	x9, x13
  405b04:	da040043 	sbc	x3, x2, x4
  405b08:	b69837a3 	tbz	x3, #51, 0x4061fc
  405b0c:	eb0901a9 	subs	x9, x13, x9
  405b10:	2a0b03e7 	mov	w7, w11
  405b14:	da020082 	sbc	x2, x4, x2
  405b18:	aa0e03ec 	mov	x12, x14
  405b1c:	aa020128 	orr	x8, x9, x2
  405b20:	17ffff87 	b	0x40593c
  405b24:	aa0d0080 	orr	x0, x4, x13
  405b28:	b40026a0 	cbz	x0, 0x405ffc
  405b2c:	710004a5 	subs	w5, w5, #0x1
  405b30:	54fff7a1 	b.ne	0x405a24  // b.any
  405b34:	ab0d0129 	adds	x9, x9, x13
  405b38:	9a020082 	adc	x2, x4, x2
  405b3c:	d503201f 	nop
  405b40:	b69ffb82 	tbz	x2, #51, 0x405ab0
  405b44:	91000421 	add	x1, x1, #0x1
  405b48:	d28fffe0 	mov	x0, #0x7fff                	// #32767
  405b4c:	eb00003f 	cmp	x1, x0
  405b50:	54002760 	b.eq	0x40603c  // b.none
  405b54:	92400120 	and	x0, x9, #0x1
  405b58:	924cf843 	and	x3, x2, #0xfff7ffffffffffff
  405b5c:	aa490409 	orr	x9, x0, x9, lsr #1
  405b60:	52800005 	mov	w5, #0x0                   	// #0
  405b64:	aa02fd29 	orr	x9, x9, x2, lsl #63
  405b68:	d341fc62 	lsr	x2, x3, #1
  405b6c:	92400920 	and	x0, x9, #0x7
  405b70:	17ffff77 	b	0x40594c
  405b74:	926a05e3 	and	x3, x15, #0xc00000
  405b78:	b40001c3 	cbz	x3, 0x405bb0
  405b7c:	f150007f 	cmp	x3, #0x400, lsl #12
  405b80:	54000140 	b.eq	0x405ba8  // b.none
  405b84:	f160007f 	cmp	x3, #0x800, lsl #12
  405b88:	1a9f018c 	csel	w12, w12, wzr, eq  // eq = none
  405b8c:	3500012c 	cbnz	w12, 0x405bb0
  405b90:	52800281 	mov	w1, #0x14                  	// #20
  405b94:	92fc0002 	mov	x2, #0x1fffffffffffffff    	// #2305843009213693951
  405b98:	2a010000 	orr	w0, w0, w1
  405b9c:	92800008 	mov	x8, #0xffffffffffffffff    	// #-1
  405ba0:	d28fffc1 	mov	x1, #0x7ffe                	// #32766
  405ba4:	17ffffcb 	b	0x405ad0
  405ba8:	b5ffff4c 	cbnz	x12, 0x405b90
  405bac:	d503201f 	nop
  405bb0:	52800281 	mov	w1, #0x14                  	// #20
  405bb4:	92401cf0 	and	x16, x7, #0xff
  405bb8:	2a010000 	orr	w0, w0, w1
  405bbc:	d2800004 	mov	x4, #0x0                   	// #0
  405bc0:	9e670080 	fmov	d0, x4
  405bc4:	d3410210 	lsl	x16, x16, #63
  405bc8:	b2503a05 	orr	x5, x16, #0x7fff000000000000
  405bcc:	9eaf00a0 	fmov	v0.d[1], x5
  405bd0:	3d8007e0 	str	q0, [sp, #16]
  405bd4:	940007cb 	bl	0x407b00
  405bd8:	3dc007e0 	ldr	q0, [sp, #16]
  405bdc:	a8c37bfd 	ldp	x29, x30, [sp], #48
  405be0:	d65f03c0 	ret
  405be4:	54000a00 	b.eq	0x405d24  // b.none
  405be8:	b5001608 	cbnz	x8, 0x405ea8
  405bec:	aa090040 	orr	x0, x2, x9
  405bf0:	b4002920 	cbz	x0, 0x406114
  405bf4:	310004bf 	cmn	w5, #0x1
  405bf8:	540033e0 	b.eq	0x406274  // b.none
  405bfc:	d28fffe0 	mov	x0, #0x7fff                	// #32767
  405c00:	2a2503e5 	mvn	w5, w5
  405c04:	eb00007f 	cmp	x3, x0
  405c08:	540015a1 	b.ne	0x405ebc  // b.any
  405c0c:	aa0d0080 	orr	x0, x4, x13
  405c10:	b4ffef40 	cbz	x0, 0x4059f8
  405c14:	d372fc85 	lsr	x5, x4, #50
  405c18:	aa0d03e9 	mov	x9, x13
  405c1c:	d24000a5 	eor	x5, x5, #0x1
  405c20:	aa0403e2 	mov	x2, x4
  405c24:	120000a5 	and	w5, w5, #0x1
  405c28:	14000018 	b	0x405c88
  405c2c:	52800200 	mov	w0, #0x10                  	// #16
  405c30:	b400006c 	cbz	x12, 0x405c3c
  405c34:	b1002129 	adds	x9, x9, #0x8
  405c38:	9a823442 	cinc	x2, x2, cs  // cs = hs, nlast
  405c3c:	924d0043 	and	x3, x2, #0x8000000000000
  405c40:	34ffe9c5 	cbz	w5, 0x405978
  405c44:	321d0000 	orr	w0, w0, #0x8
  405c48:	17ffff4c 	b	0x405978
  405c4c:	52800200 	mov	w0, #0x10                  	// #16
  405c50:	b5ffff6c 	cbnz	x12, 0x405c3c
  405c54:	17fffff8 	b	0x405c34
  405c58:	92400d23 	and	x3, x9, #0xf
  405c5c:	52800200 	mov	w0, #0x10                  	// #16
  405c60:	f100107f 	cmp	x3, #0x4
  405c64:	54fffec0 	b.eq	0x405c3c  // b.none
  405c68:	b1001129 	adds	x9, x9, #0x4
  405c6c:	9a823442 	cinc	x2, x2, cs  // cs = hs, nlast
  405c70:	17fffff3 	b	0x405c3c
  405c74:	aa090040 	orr	x0, x2, x9
  405c78:	b4ffec00 	cbz	x0, 0x4059f8
  405c7c:	d372fc45 	lsr	x5, x2, #50
  405c80:	d24000a5 	eor	x5, x5, #0x1
  405c84:	120000a5 	and	w5, w5, #0x1
  405c88:	2a0503e0 	mov	w0, w5
  405c8c:	d28fffe1 	mov	x1, #0x7fff                	// #32767
  405c90:	d28fffe3 	mov	x3, #0x7fff                	// #32767
  405c94:	93c90c48 	extr	x8, x2, x9, #3
  405c98:	eb03003f 	cmp	x1, x3
  405c9c:	d343fc42 	lsr	x2, x2, #3
  405ca0:	54fff181 	b.ne	0x405ad0  // b.any
  405ca4:	aa020101 	orr	x1, x8, x2
  405ca8:	b4003361 	cbz	x1, 0x406314
  405cac:	b2510042 	orr	x2, x2, #0x800000000000
  405cb0:	528fffe1 	mov	w1, #0x7fff                	// #32767
  405cb4:	9240bc42 	and	x2, x2, #0xffffffffffff
  405cb8:	17ffff38 	b	0x405998
  405cbc:	aa0303e9 	mov	x9, x3
  405cc0:	924cf842 	and	x2, x2, #0xfff7ffffffffffff
  405cc4:	cb040021 	sub	x1, x1, x4
  405cc8:	aa020128 	orr	x8, x9, x2
  405ccc:	92400920 	and	x0, x9, #0x7
  405cd0:	52800005 	mov	w5, #0x0                   	// #0
  405cd4:	b4ffef61 	cbz	x1, 0x405ac0
  405cd8:	17ffff1d 	b	0x40594c
  405cdc:	dac01122 	clz	x2, x9
  405ce0:	1100d040 	add	w0, w2, #0x34
  405ce4:	7100fc1f 	cmp	w0, #0x3f
  405ce8:	54ffdfcd 	b.le	0x4058e0
  405cec:	51003042 	sub	w2, w2, #0xc
  405cf0:	9ac22122 	lsl	x2, x9, x2
  405cf4:	17ffff00 	b	0x4058f4
  405cf8:	aa0d0084 	orr	x4, x4, x13
  405cfc:	f100009f 	cmp	x4, #0x0
  405d00:	9a9f07e3 	cset	x3, ne  // ne = any
  405d04:	17fffef0 	b	0x4058c4
  405d08:	924d0043 	and	x3, x2, #0x8000000000000
  405d0c:	52800000 	mov	w0, #0x0                   	// #0
  405d10:	34ffe345 	cbz	w5, 0x405978
  405d14:	52800000 	mov	w0, #0x0                   	// #0
  405d18:	365fe30f 	tbz	w15, #11, 0x405978
  405d1c:	321d0000 	orr	w0, w0, #0x8
  405d20:	17ffff16 	b	0x405978
  405d24:	91000500 	add	x0, x8, #0x1
  405d28:	f27f341f 	tst	x0, #0x7ffe
  405d2c:	54001041 	b.ne	0x405f34  // b.any
  405d30:	aa090040 	orr	x0, x2, x9
  405d34:	b5001de8 	cbnz	x8, 0x4060f0
  405d38:	aa0d0088 	orr	x8, x4, x13
  405d3c:	b4002040 	cbz	x0, 0x406144
  405d40:	b4001788 	cbz	x8, 0x406030
  405d44:	ab0d0129 	adds	x9, x9, x13
  405d48:	9a020082 	adc	x2, x4, x2
  405d4c:	b69fee82 	tbz	x2, #51, 0x405b1c
  405d50:	924cf842 	and	x2, x2, #0xfff7ffffffffffff
  405d54:	92400920 	and	x0, x9, #0x7
  405d58:	d2800021 	mov	x1, #0x1                   	// #1
  405d5c:	17fffefc 	b	0x40594c
  405d60:	d28fffe1 	mov	x1, #0x7fff                	// #32767
  405d64:	4b0003e0 	neg	w0, w0
  405d68:	b24d0042 	orr	x2, x2, #0x8000000000000
  405d6c:	eb01007f 	cmp	x3, x1
  405d70:	54ffe3c0 	b.eq	0x4059e8  // b.none
  405d74:	7101d01f 	cmp	w0, #0x74
  405d78:	5400086c 	b.gt	0x405e84
  405d7c:	7100fc1f 	cmp	w0, #0x3f
  405d80:	5400190c 	b.gt	0x4060a0
  405d84:	52800801 	mov	w1, #0x40                  	// #64
  405d88:	4b000021 	sub	w1, w1, w0
  405d8c:	9ac02525 	lsr	x5, x9, x0
  405d90:	9ac12129 	lsl	x9, x9, x1
  405d94:	f100013f 	cmp	x9, #0x0
  405d98:	9ac12049 	lsl	x9, x2, x1
  405d9c:	9a9f07e1 	cset	x1, ne  // ne = any
  405da0:	aa050129 	orr	x9, x9, x5
  405da4:	9ac02440 	lsr	x0, x2, x0
  405da8:	aa010129 	orr	x9, x9, x1
  405dac:	cb000084 	sub	x4, x4, x0
  405db0:	14000038 	b	0x405e90
  405db4:	eb0d0125 	subs	x5, x9, x13
  405db8:	eb0d013f 	cmp	x9, x13
  405dbc:	da040043 	sbc	x3, x2, x4
  405dc0:	b7980ce3 	tbnz	x3, #51, 0x405f5c
  405dc4:	aa0300a8 	orr	x8, x5, x3
  405dc8:	b5001608 	cbnz	x8, 0x406088
  405dcc:	926a05ef 	and	x15, x15, #0xc00000
  405dd0:	d2800002 	mov	x2, #0x0                   	// #0
  405dd4:	f16001ff 	cmp	x15, #0x800, lsl #12
  405dd8:	d2800001 	mov	x1, #0x0                   	// #0
  405ddc:	1a9f17e7 	cset	w7, eq  // eq = none
  405de0:	17ffff3c 	b	0x405ad0
  405de4:	d28fffe0 	mov	x0, #0x7fff                	// #32767
  405de8:	eb00011f 	cmp	x8, x0
  405dec:	54ffe621 	b.ne	0x405ab0  // b.any
  405df0:	aa090040 	orr	x0, x2, x9
  405df4:	b5fff440 	cbnz	x0, 0x405c7c
  405df8:	d2800002 	mov	x2, #0x0                   	// #0
  405dfc:	d2800008 	mov	x8, #0x0                   	// #0
  405e00:	52800000 	mov	w0, #0x0                   	// #0
  405e04:	17ffffa8 	b	0x405ca4
  405e08:	aa0d0084 	orr	x4, x4, x13
  405e0c:	f100009f 	cmp	x4, #0x0
  405e10:	9a9f07e0 	cset	x0, ne  // ne = any
  405e14:	ab090009 	adds	x9, x0, x9
  405e18:	9a823442 	cinc	x2, x2, cs  // cs = hs, nlast
  405e1c:	17ffff49 	b	0x405b40
  405e20:	52801004 	mov	w4, #0x80                  	// #128
  405e24:	4b000084 	sub	w4, w4, w0
  405e28:	7101001f 	cmp	w0, #0x40
  405e2c:	5100fc29 	sub	w9, w1, #0x3f
  405e30:	9ac42040 	lsl	x0, x2, x4
  405e34:	aa000060 	orr	x0, x3, x0
  405e38:	9a831003 	csel	x3, x0, x3, ne  // ne = any
  405e3c:	9ac92449 	lsr	x9, x2, x9
  405e40:	f100007f 	cmp	x3, #0x0
  405e44:	d2800002 	mov	x2, #0x0                   	// #0
  405e48:	9a9f07e0 	cset	x0, ne  // ne = any
  405e4c:	aa090009 	orr	x9, x0, x9
  405e50:	aa0903e8 	mov	x8, x9
  405e54:	17fffeba 	b	0x40593c
  405e58:	52801005 	mov	w5, #0x80                  	// #128
  405e5c:	4b0000a5 	sub	w5, w5, w0
  405e60:	71010000 	subs	w0, w0, #0x40
  405e64:	9ac52085 	lsl	x5, x4, x5
  405e68:	aa0501a5 	orr	x5, x13, x5
  405e6c:	9a8d10ad 	csel	x13, x5, x13, ne  // ne = any
  405e70:	9ac02484 	lsr	x4, x4, x0
  405e74:	f10001bf 	cmp	x13, #0x0
  405e78:	9a9f07e3 	cset	x3, ne  // ne = any
  405e7c:	aa040063 	orr	x3, x3, x4
  405e80:	17fffe91 	b	0x4058c4
  405e84:	aa090042 	orr	x2, x2, x9
  405e88:	f100005f 	cmp	x2, #0x0
  405e8c:	9a9f07e9 	cset	x9, ne  // ne = any
  405e90:	eb0901a9 	subs	x9, x13, x9
  405e94:	2a0b03e7 	mov	w7, w11
  405e98:	da1f0082 	sbc	x2, x4, xzr
  405e9c:	aa0303e1 	mov	x1, x3
  405ea0:	aa0e03ec 	mov	x12, x14
  405ea4:	17fffe8a 	b	0x4058cc
  405ea8:	d28fffe0 	mov	x0, #0x7fff                	// #32767
  405eac:	4b0503e5 	neg	w5, w5
  405eb0:	b24d0042 	orr	x2, x2, #0x8000000000000
  405eb4:	eb00007f 	cmp	x3, x0
  405eb8:	54ffeaa0 	b.eq	0x405c0c  // b.none
  405ebc:	7101d0bf 	cmp	w5, #0x74
  405ec0:	54000e8c 	b.gt	0x406090
  405ec4:	7100fcbf 	cmp	w5, #0x3f
  405ec8:	5400144c 	b.gt	0x406150
  405ecc:	52800801 	mov	w1, #0x40                  	// #64
  405ed0:	4b050021 	sub	w1, w1, w5
  405ed4:	9ac52526 	lsr	x6, x9, x5
  405ed8:	9ac12129 	lsl	x9, x9, x1
  405edc:	f100013f 	cmp	x9, #0x0
  405ee0:	9a9f07e0 	cset	x0, ne  // ne = any
  405ee4:	9ac12049 	lsl	x9, x2, x1
  405ee8:	aa060129 	orr	x9, x9, x6
  405eec:	9ac52445 	lsr	x5, x2, x5
  405ef0:	aa000129 	orr	x9, x9, x0
  405ef4:	8b050084 	add	x4, x4, x5
  405ef8:	ab0d0129 	adds	x9, x9, x13
  405efc:	aa0303e1 	mov	x1, x3
  405f00:	9a843482 	cinc	x2, x4, cs  // cs = hs, nlast
  405f04:	17ffff0f 	b	0x405b40
  405f08:	52801000 	mov	w0, #0x80                  	// #128
  405f0c:	4b050000 	sub	w0, w0, w5
  405f10:	710100a5 	subs	w5, w5, #0x40
  405f14:	9ac02080 	lsl	x0, x4, x0
  405f18:	aa0001a0 	orr	x0, x13, x0
  405f1c:	9a8d100d 	csel	x13, x0, x13, ne  // ne = any
  405f20:	9ac52484 	lsr	x4, x4, x5
  405f24:	f10001bf 	cmp	x13, #0x0
  405f28:	9a9f07e0 	cset	x0, ne  // ne = any
  405f2c:	aa040000 	orr	x0, x0, x4
  405f30:	17ffffb9 	b	0x405e14
  405f34:	d28fffe1 	mov	x1, #0x7fff                	// #32767
  405f38:	eb01001f 	cmp	x0, x1
  405f3c:	540012e0 	b.eq	0x406198  // b.none
  405f40:	ab0d0129 	adds	x9, x9, x13
  405f44:	aa0003e1 	mov	x1, x0
  405f48:	9a020082 	adc	x2, x4, x2
  405f4c:	d3410d20 	ubfx	x0, x9, #1, #3
  405f50:	93c90449 	extr	x9, x2, x9, #1
  405f54:	d341fc42 	lsr	x2, x2, #1
  405f58:	17fffe7d 	b	0x40594c
  405f5c:	eb0901bf 	cmp	x13, x9
  405f60:	2a0b03e7 	mov	w7, w11
  405f64:	da020083 	sbc	x3, x4, x2
  405f68:	cb0901a9 	sub	x9, x13, x9
  405f6c:	aa0e03ec 	mov	x12, x14
  405f70:	17fffe59 	b	0x4058d4
  405f74:	d28fffec 	mov	x12, #0x7fff                	// #32767
  405f78:	eb0c003f 	cmp	x1, x12
  405f7c:	54000160 	b.eq	0x405fa8  // b.none
  405f80:	eb0c007f 	cmp	x3, x12
  405f84:	540012a0 	b.eq	0x4061d8  // b.none
  405f88:	b50001c5 	cbnz	x5, 0x405fc0
  405f8c:	2a0003e5 	mov	w5, w0
  405f90:	b5001948 	cbnz	x8, 0x4062b8
  405f94:	52800007 	mov	w7, #0x0                   	// #0
  405f98:	92ffffe2 	mov	x2, #0xffffffffffff        	// #281474976710655
  405f9c:	52800020 	mov	w0, #0x1                   	// #1
  405fa0:	92800008 	mov	x8, #0xffffffffffffffff    	// #-1
  405fa4:	17ffff42 	b	0x405cac
  405fa8:	b4001965 	cbz	x5, 0x4062d4
  405fac:	d372fc40 	lsr	x0, x2, #50
  405fb0:	eb01007f 	cmp	x3, x1
  405fb4:	d2400000 	eor	x0, x0, #0x1
  405fb8:	12000000 	and	w0, w0, #0x1
  405fbc:	540010e0 	b.eq	0x4061d8  // b.none
  405fc0:	b40011a8 	cbz	x8, 0x4061f4
  405fc4:	b3430846 	bfi	x6, x2, #61, #3
  405fc8:	d343fc43 	lsr	x3, x2, #3
  405fcc:	b69000e2 	tbz	x2, #50, 0x405fe8
  405fd0:	d343fc81 	lsr	x1, x4, #3
  405fd4:	b79000a4 	tbnz	x4, #50, 0x405fe8
  405fd8:	aa0a03e6 	mov	x6, x10
  405fdc:	2a0b03e7 	mov	w7, w11
  405fe0:	b3430886 	bfi	x6, x4, #61, #3
  405fe4:	aa0103e3 	mov	x3, x1
  405fe8:	93c6f462 	extr	x2, x3, x6, #61
  405fec:	b3430846 	bfi	x6, x2, #61, #3
  405ff0:	d343fc42 	lsr	x2, x2, #3
  405ff4:	aa0603e8 	mov	x8, x6
  405ff8:	17ffff2b 	b	0x405ca4
  405ffc:	d28fffe0 	mov	x0, #0x7fff                	// #32767
  406000:	eb00011f 	cmp	x8, x0
  406004:	54ffd561 	b.ne	0x405ab0  // b.any
  406008:	aa090040 	orr	x0, x2, x9
  40600c:	b4ffef60 	cbz	x0, 0x405df8
  406010:	d372fc45 	lsr	x5, x2, #50
  406014:	520000a5 	eor	w5, w5, #0x1
  406018:	17ffff1c 	b	0x405c88
  40601c:	b40008a8 	cbz	x8, 0x406130
  406020:	2a0b03e7 	mov	w7, w11
  406024:	aa0403e2 	mov	x2, x4
  406028:	aa0d03e9 	mov	x9, x13
  40602c:	aa0e03ec 	mov	x12, x14
  406030:	d2800001 	mov	x1, #0x0                   	// #0
  406034:	d2800003 	mov	x3, #0x0                   	// #0
  406038:	17ffff37 	b	0x405d14
  40603c:	f26a05e3 	ands	x3, x15, #0xc00000
  406040:	54000460 	b.eq	0x4060cc  // b.none
  406044:	f150007f 	cmp	x3, #0x400, lsl #12
  406048:	520000e0 	eor	w0, w7, #0x1
  40604c:	1a9f17e1 	cset	w1, eq  // eq = none
  406050:	6a00003f 	tst	w1, w0
  406054:	540014e1 	b.ne	0x4062f0  // b.any
  406058:	f160007f 	cmp	x3, #0x800, lsl #12
  40605c:	54001200 	b.eq	0x40629c  // b.none
  406060:	f150007f 	cmp	x3, #0x400, lsl #12
  406064:	52800280 	mov	w0, #0x14                  	// #20
  406068:	54ffd881 	b.ne	0x405b78  // b.any
  40606c:	92800002 	mov	x2, #0xffffffffffffffff    	// #-1
  406070:	d28fffc1 	mov	x1, #0x7ffe                	// #32766
  406074:	aa0203e9 	mov	x9, x2
  406078:	52800005 	mov	w5, #0x0                   	// #0
  40607c:	52800280 	mov	w0, #0x14                  	// #20
  406080:	b5ffddec 	cbnz	x12, 0x405c3c
  406084:	17fffeec 	b	0x405c34
  406088:	aa0503e9 	mov	x9, x5
  40608c:	17fffe12 	b	0x4058d4
  406090:	aa090042 	orr	x2, x2, x9
  406094:	f100005f 	cmp	x2, #0x0
  406098:	9a9f07e9 	cset	x9, ne  // ne = any
  40609c:	17ffff97 	b	0x405ef8
  4060a0:	52801001 	mov	w1, #0x80                  	// #128
  4060a4:	4b000021 	sub	w1, w1, w0
  4060a8:	71010000 	subs	w0, w0, #0x40
  4060ac:	9ac12041 	lsl	x1, x2, x1
  4060b0:	aa010121 	orr	x1, x9, x1
  4060b4:	9a891029 	csel	x9, x1, x9, ne  // ne = any
  4060b8:	9ac02442 	lsr	x2, x2, x0
  4060bc:	f100013f 	cmp	x9, #0x0
  4060c0:	9a9f07e9 	cset	x9, ne  // ne = any
  4060c4:	aa020129 	orr	x9, x9, x2
  4060c8:	17ffff72 	b	0x405e90
  4060cc:	52800280 	mov	w0, #0x14                  	// #20
  4060d0:	17fffebb 	b	0x405bbc
  4060d4:	d372fc85 	lsr	x5, x4, #50
  4060d8:	2a0b03e7 	mov	w7, w11
  4060dc:	d24000a5 	eor	x5, x5, #0x1
  4060e0:	aa0d03e9 	mov	x9, x13
  4060e4:	120000a5 	and	w5, w5, #0x1
  4060e8:	aa0403e2 	mov	x2, x4
  4060ec:	17fffee7 	b	0x405c88
  4060f0:	d28fffe8 	mov	x8, #0x7fff                	// #32767
  4060f4:	eb08003f 	cmp	x1, x8
  4060f8:	54000900 	b.eq	0x406218  // b.none
  4060fc:	eb08007f 	cmp	x3, x8
  406100:	54000c60 	b.eq	0x40628c  // b.none
  406104:	b5000960 	cbnz	x0, 0x406230
  406108:	aa0403e2 	mov	x2, x4
  40610c:	aa0d03e9 	mov	x9, x13
  406110:	17fffede 	b	0x405c88
  406114:	d28fffe0 	mov	x0, #0x7fff                	// #32767
  406118:	eb00007f 	cmp	x3, x0
  40611c:	54000d60 	b.eq	0x4062c8  // b.none
  406120:	aa0403e2 	mov	x2, x4
  406124:	aa0d03e9 	mov	x9, x13
  406128:	aa0303e1 	mov	x1, x3
  40612c:	17fffe61 	b	0x405ab0
  406130:	926a05ef 	and	x15, x15, #0xc00000
  406134:	d2800002 	mov	x2, #0x0                   	// #0
  406138:	f16001ff 	cmp	x15, #0x800, lsl #12
  40613c:	1a9f17e7 	cset	w7, eq  // eq = none
  406140:	17fffe64 	b	0x405ad0
  406144:	aa0403e2 	mov	x2, x4
  406148:	aa0d03e9 	mov	x9, x13
  40614c:	17fffdfc 	b	0x40593c
  406150:	52801000 	mov	w0, #0x80                  	// #128
  406154:	4b050000 	sub	w0, w0, w5
  406158:	710100a5 	subs	w5, w5, #0x40
  40615c:	9ac02040 	lsl	x0, x2, x0
  406160:	aa000120 	orr	x0, x9, x0
  406164:	9a891009 	csel	x9, x0, x9, ne  // ne = any
  406168:	9ac52442 	lsr	x2, x2, x5
  40616c:	f100013f 	cmp	x9, #0x0
  406170:	9a9f07e9 	cset	x9, ne  // ne = any
  406174:	aa020129 	orr	x9, x9, x2
  406178:	17ffff60 	b	0x405ef8
  40617c:	eb0901bf 	cmp	x13, x9
  406180:	2a0b03e7 	mov	w7, w11
  406184:	da020082 	sbc	x2, x4, x2
  406188:	cb0901a9 	sub	x9, x13, x9
  40618c:	aa0303e1 	mov	x1, x3
  406190:	aa0503ec 	mov	x12, x5
  406194:	17fffdce 	b	0x4058cc
  406198:	f26a05e3 	ands	x3, x15, #0xc00000
  40619c:	54fff980 	b.eq	0x4060cc  // b.none
  4061a0:	f150007f 	cmp	x3, #0x400, lsl #12
  4061a4:	520000e0 	eor	w0, w7, #0x1
  4061a8:	1a9f0000 	csel	w0, w0, wzr, eq  // eq = none
  4061ac:	35000a20 	cbnz	w0, 0x4062f0
  4061b0:	f160007f 	cmp	x3, #0x800, lsl #12
  4061b4:	54fff561 	b.ne	0x406060  // b.any
  4061b8:	b400074c 	cbz	x12, 0x4062a0
  4061bc:	52800280 	mov	w0, #0x14                  	// #20
  4061c0:	d2800030 	mov	x16, #0x1                   	// #1
  4061c4:	17fffe7e 	b	0x405bbc
  4061c8:	aa0d0080 	orr	x0, x4, x13
  4061cc:	b5fff840 	cbnz	x0, 0x4060d4
  4061d0:	2a0b03e7 	mov	w7, w11
  4061d4:	17ffff09 	b	0x405df8
  4061d8:	b4000868 	cbz	x8, 0x4062e4
  4061dc:	f24e009f 	tst	x4, #0x4000000000000
  4061e0:	1a9f1400 	csinc	w0, w0, wzr, ne  // ne = any
  4061e4:	b5ffef05 	cbnz	x5, 0x405fc4
  4061e8:	2a0b03e7 	mov	w7, w11
  4061ec:	aa0403e2 	mov	x2, x4
  4061f0:	aa0d03e9 	mov	x9, x13
  4061f4:	2a0003e5 	mov	w5, w0
  4061f8:	17fffea4 	b	0x405c88
  4061fc:	aa0300a8 	orr	x8, x5, x3
  406200:	b4fff988 	cbz	x8, 0x406130
  406204:	924008a0 	and	x0, x5, #0x7
  406208:	aa0503e9 	mov	x9, x5
  40620c:	aa0303e2 	mov	x2, x3
  406210:	52800025 	mov	w5, #0x1                   	// #1
  406214:	17fffdce 	b	0x40594c
  406218:	b4000360 	cbz	x0, 0x406284
  40621c:	d372fc45 	lsr	x5, x2, #50
  406220:	eb01007f 	cmp	x3, x1
  406224:	d24000a5 	eor	x5, x5, #0x1
  406228:	120000a5 	and	w5, w5, #0x1
  40622c:	54000680 	b.eq	0x4062fc  // b.none
  406230:	aa0d008d 	orr	x13, x4, x13
  406234:	b4ffd2ad 	cbz	x13, 0x405c88
  406238:	b3430846 	bfi	x6, x2, #61, #3
  40623c:	d343fc40 	lsr	x0, x2, #3
  406240:	b69000e2 	tbz	x2, #50, 0x40625c
  406244:	d343fc81 	lsr	x1, x4, #3
  406248:	b79000a4 	tbnz	x4, #50, 0x40625c
  40624c:	9240f146 	and	x6, x10, #0x1fffffffffffffff
  406250:	2a0b03e7 	mov	w7, w11
  406254:	aa04f4c6 	orr	x6, x6, x4, lsl #61
  406258:	aa0103e0 	mov	x0, x1
  40625c:	93c6f402 	extr	x2, x0, x6, #61
  406260:	2a0503e0 	mov	w0, w5
  406264:	b3430846 	bfi	x6, x2, #61, #3
  406268:	d343fc42 	lsr	x2, x2, #3
  40626c:	aa0603e8 	mov	x8, x6
  406270:	17fffe8d 	b	0x405ca4
  406274:	ab0d0129 	adds	x9, x9, x13
  406278:	aa0303e1 	mov	x1, x3
  40627c:	9a020082 	adc	x2, x4, x2
  406280:	17fffe30 	b	0x405b40
  406284:	eb01007f 	cmp	x3, x1
  406288:	54fff401 	b.ne	0x406108  // b.any
  40628c:	aa0d0081 	orr	x1, x4, x13
  406290:	b50003a1 	cbnz	x1, 0x406304
  406294:	b4ffdb20 	cbz	x0, 0x405df8
  406298:	17fffe7c 	b	0x405c88
  40629c:	b5fff910 	cbnz	x16, 0x4061bc
  4062a0:	92800002 	mov	x2, #0xffffffffffffffff    	// #-1
  4062a4:	52800007 	mov	w7, #0x0                   	// #0
  4062a8:	aa0203e9 	mov	x9, x2
  4062ac:	d28fffc1 	mov	x1, #0x7ffe                	// #32766
  4062b0:	52800280 	mov	w0, #0x14                  	// #20
  4062b4:	17fffdb2 	b	0x40597c
  4062b8:	2a0b03e7 	mov	w7, w11
  4062bc:	aa0403e2 	mov	x2, x4
  4062c0:	aa0d03e9 	mov	x9, x13
  4062c4:	17fffe71 	b	0x405c88
  4062c8:	aa0d0080 	orr	x0, x4, x13
  4062cc:	b4ffd960 	cbz	x0, 0x405df8
  4062d0:	17fffe51 	b	0x405c14
  4062d4:	eb01007f 	cmp	x3, x1
  4062d8:	54fff800 	b.eq	0x4061d8  // b.none
  4062dc:	52800005 	mov	w5, #0x0                   	// #0
  4062e0:	17ffff2c 	b	0x405f90
  4062e4:	b5fff885 	cbnz	x5, 0x4061f4
  4062e8:	2a0003e5 	mov	w5, w0
  4062ec:	17ffff29 	b	0x405f90
  4062f0:	52800280 	mov	w0, #0x14                  	// #20
  4062f4:	d2800010 	mov	x16, #0x0                   	// #0
  4062f8:	17fffe31 	b	0x405bbc
  4062fc:	aa0d0081 	orr	x1, x4, x13
  406300:	b4ffcc41 	cbz	x1, 0x405c88
  406304:	f24e009f 	tst	x4, #0x4000000000000
  406308:	1a9f14a5 	csinc	w5, w5, wzr, ne  // ne = any
  40630c:	b5fff960 	cbnz	x0, 0x406238
  406310:	17ffff7e 	b	0x406108
  406314:	d2800008 	mov	x8, #0x0                   	// #0
  406318:	528fffe1 	mov	w1, #0x7fff                	// #32767
  40631c:	d2800002 	mov	x2, #0x0                   	// #0
  406320:	17fffd9e 	b	0x405998
  406324:	d503201f 	nop
  406328:	a9bd7bfd 	stp	x29, x30, [sp, #-48]!
  40632c:	910003fd 	mov	x29, sp
  406330:	3d8007e0 	str	q0, [sp, #16]
  406334:	3d800be1 	str	q1, [sp, #32]
  406338:	a94107e6 	ldp	x6, x1, [sp, #16]
  40633c:	a94203e7 	ldp	x7, x0, [sp, #32]
  406340:	d53b4402 	mrs	x2, fpcr
  406344:	d370f824 	ubfx	x4, x1, #48, #15
  406348:	d37ffc22 	lsr	x2, x1, #63
  40634c:	d37ffc03 	lsr	x3, x0, #63
  406350:	d340bc09 	ubfx	x9, x0, #0, #48
  406354:	d28fffe5 	mov	x5, #0x7fff                	// #32767
  406358:	aa0603ea 	mov	x10, x6
  40635c:	eb05009f 	cmp	x4, x5
  406360:	12001c42 	and	w2, w2, #0xff
  406364:	d340bc21 	ubfx	x1, x1, #0, #48
  406368:	12001c63 	and	w3, w3, #0xff
  40636c:	d370f800 	ubfx	x0, x0, #48, #15
  406370:	540001a0 	b.eq	0x4063a4  // b.none
  406374:	eb05001f 	cmp	x0, x5
  406378:	540000c0 	b.eq	0x406390  // b.none
  40637c:	eb00009f 	cmp	x4, x0
  406380:	52800020 	mov	w0, #0x1                   	// #1
  406384:	540001c0 	b.eq	0x4063bc  // b.none
  406388:	a8c37bfd 	ldp	x29, x30, [sp], #48
  40638c:	d65f03c0 	ret
  406390:	aa070128 	orr	x8, x9, x7
  406394:	b5000468 	cbnz	x8, 0x406420
  406398:	52800020 	mov	w0, #0x1                   	// #1
  40639c:	a8c37bfd 	ldp	x29, x30, [sp], #48
  4063a0:	d65f03c0 	ret
  4063a4:	aa060025 	orr	x5, x1, x6
  4063a8:	b5000245 	cbnz	x5, 0x4063f0
  4063ac:	eb04001f 	cmp	x0, x4
  4063b0:	54ffff41 	b.ne	0x406398  // b.any
  4063b4:	aa070128 	orr	x8, x9, x7
  4063b8:	b5000348 	cbnz	x8, 0x406420
  4063bc:	eb09003f 	cmp	x1, x9
  4063c0:	52800020 	mov	w0, #0x1                   	// #1
  4063c4:	fa4700c0 	ccmp	x6, x7, #0x0, eq  // eq = none
  4063c8:	54fffe01 	b.ne	0x406388  // b.any
  4063cc:	6b03005f 	cmp	w2, w3
  4063d0:	52800000 	mov	w0, #0x0                   	// #0
  4063d4:	54fffda0 	b.eq	0x406388  // b.none
  4063d8:	52800020 	mov	w0, #0x1                   	// #1
  4063dc:	b5fffd64 	cbnz	x4, 0x406388
  4063e0:	aa0a0021 	orr	x1, x1, x10
  4063e4:	f100003f 	cmp	x1, #0x0
  4063e8:	1a9f07e0 	cset	w0, ne  // ne = any
  4063ec:	17ffffe7 	b	0x406388
  4063f0:	f251003f 	tst	x1, #0x800000000000
  4063f4:	540000c1 	b.ne	0x40640c  // b.any
  4063f8:	52800020 	mov	w0, #0x1                   	// #1
  4063fc:	940005c1 	bl	0x407b00
  406400:	52800020 	mov	w0, #0x1                   	// #1
  406404:	a8c37bfd 	ldp	x29, x30, [sp], #48
  406408:	d65f03c0 	ret
  40640c:	eb04001f 	cmp	x0, x4
  406410:	52800020 	mov	w0, #0x1                   	// #1
  406414:	54fffba1 	b.ne	0x406388  // b.any
  406418:	aa070128 	orr	x8, x9, x7
  40641c:	b4fffb68 	cbz	x8, 0x406388
  406420:	f251013f 	tst	x9, #0x800000000000
  406424:	54fffea0 	b.eq	0x4063f8  // b.none
  406428:	17ffffdc 	b	0x406398
  40642c:	d503201f 	nop
  406430:	a9bb7bfd 	stp	x29, x30, [sp, #-80]!
  406434:	910003fd 	mov	x29, sp
  406438:	3d800fe0 	str	q0, [sp, #48]
  40643c:	3d8013e1 	str	q1, [sp, #64]
  406440:	a94303e1 	ldp	x1, x0, [sp, #48]
  406444:	a9440be6 	ldp	x6, x2, [sp, #64]
  406448:	d53b440b 	mrs	x11, fpcr
  40644c:	d37ffc03 	lsr	x3, x0, #63
  406450:	d340bc07 	ubfx	x7, x0, #0, #48
  406454:	12001c6c 	and	w12, w3, #0xff
  406458:	aa0303ee 	mov	x14, x3
  40645c:	d370f803 	ubfx	x3, x0, #48, #15
  406460:	34001d43 	cbz	w3, 0x406808
  406464:	528fffe4 	mov	w4, #0x7fff                	// #32767
  406468:	6b04007f 	cmp	w3, w4
  40646c:	54002200 	b.eq	0x4068ac  // b.none
  406470:	92403c63 	and	x3, x3, #0xffff
  406474:	93c1f4e4 	extr	x4, x7, x1, #61
  406478:	9287ffd2 	mov	x18, #0xffffffffffffc001    	// #-16383
  40647c:	b24d0087 	orr	x7, x4, #0x8000000000000
  406480:	8b120063 	add	x3, x3, x18
  406484:	d37df025 	lsl	x5, x1, #3
  406488:	d2800010 	mov	x16, #0x0                   	// #0
  40648c:	d2800001 	mov	x1, #0x0                   	// #0
  406490:	52800000 	mov	w0, #0x0                   	// #0
  406494:	d37ffc48 	lsr	x8, x2, #63
  406498:	d340bc44 	ubfx	x4, x2, #0, #48
  40649c:	12001d0f 	and	w15, w8, #0xff
  4064a0:	aa0803ed 	mov	x13, x8
  4064a4:	d370f849 	ubfx	x9, x2, #48, #15
  4064a8:	34001e09 	cbz	w9, 0x406868
  4064ac:	528fffe8 	mov	w8, #0x7fff                	// #32767
  4064b0:	6b08013f 	cmp	w9, w8
  4064b4:	54000420 	b.eq	0x406538  // b.none
  4064b8:	92403d29 	and	x9, x9, #0xffff
  4064bc:	9287ffd1 	mov	x17, #0xffffffffffffc001    	// #-16383
  4064c0:	8b110129 	add	x9, x9, x17
  4064c4:	93c6f482 	extr	x2, x4, x6, #61
  4064c8:	8b030129 	add	x9, x9, x3
  4064cc:	d37df0c6 	lsl	x6, x6, #3
  4064d0:	b24d0044 	orr	x4, x2, #0x8000000000000
  4064d4:	d2800002 	mov	x2, #0x0                   	// #0
  4064d8:	4a0f0188 	eor	w8, w12, w15
  4064dc:	f100283f 	cmp	x1, #0xa
  4064e0:	12001d0a 	and	w10, w8, #0xff
  4064e4:	91000523 	add	x3, x9, #0x1
  4064e8:	92401d08 	and	x8, x8, #0xff
  4064ec:	5400042d 	b.le	0x406570
  4064f0:	f1002c3f 	cmp	x1, #0xb
  4064f4:	540038a0 	b.eq	0x406c08  // b.none
  4064f8:	2a0c03ef 	mov	w15, w12
  4064fc:	aa0e03ed 	mov	x13, x14
  406500:	2a0f03ea 	mov	w10, w15
  406504:	f1000a1f 	cmp	x16, #0x2
  406508:	54001e20 	b.eq	0x4068cc  // b.none
  40650c:	aa0703e4 	mov	x4, x7
  406510:	aa0503e6 	mov	x6, x5
  406514:	aa1003e2 	mov	x2, x16
  406518:	aa0d03e8 	mov	x8, x13
  40651c:	f1000c5f 	cmp	x2, #0x3
  406520:	54000361 	b.ne	0x40658c  // b.any
  406524:	b2510084 	orr	x4, x4, #0x800000000000
  406528:	aa0603e5 	mov	x5, x6
  40652c:	9240bc84 	and	x4, x4, #0xffffffffffff
  406530:	528fffe1 	mov	w1, #0x7fff                	// #32767
  406534:	1400001b 	b	0x4065a0
  406538:	d28fffe8 	mov	x8, #0x7fff                	// #32767
  40653c:	aa060082 	orr	x2, x4, x6
  406540:	8b080069 	add	x9, x3, x8
  406544:	b5000402 	cbnz	x2, 0x4065c4
  406548:	4a0f0188 	eor	w8, w12, w15
  40654c:	b27f0021 	orr	x1, x1, #0x2
  406550:	12001d0a 	and	w10, w8, #0xff
  406554:	f100283f 	cmp	x1, #0xa
  406558:	91402063 	add	x3, x3, #0x8, lsl #12
  40655c:	92401d08 	and	x8, x8, #0xff
  406560:	d2800006 	mov	x6, #0x0                   	// #0
  406564:	540030cc 	b.gt	0x406b7c
  406568:	d2800004 	mov	x4, #0x0                   	// #0
  40656c:	d2800042 	mov	x2, #0x2                   	// #2
  406570:	f100083f 	cmp	x1, #0x2
  406574:	540003cc 	b.gt	0x4065ec
  406578:	d1000421 	sub	x1, x1, #0x1
  40657c:	f100043f 	cmp	x1, #0x1
  406580:	54000548 	b.hi	0x406628  // b.pmore
  406584:	f100085f 	cmp	x2, #0x2
  406588:	54001a20 	b.eq	0x4068cc  // b.none
  40658c:	f100045f 	cmp	x2, #0x1
  406590:	54000fc1 	b.ne	0x406788  // b.any
  406594:	52800001 	mov	w1, #0x0                   	// #0
  406598:	d2800004 	mov	x4, #0x0                   	// #0
  40659c:	d2800005 	mov	x5, #0x0                   	// #0
  4065a0:	d2800003 	mov	x3, #0x0                   	// #0
  4065a4:	2a0a3c21 	orr	w1, w1, w10, lsl #15
  4065a8:	b340bc83 	bfxil	x3, x4, #0, #48
  4065ac:	9e6700a0 	fmov	d0, x5
  4065b0:	b3503c23 	bfi	x3, x1, #48, #16
  4065b4:	9eaf0060 	fmov	v0.d[1], x3
  4065b8:	35002200 	cbnz	w0, 0x4069f8
  4065bc:	a8c57bfd 	ldp	x29, x30, [sp], #80
  4065c0:	d65f03c0 	ret
  4065c4:	f251009f 	tst	x4, #0x800000000000
  4065c8:	4a0f0188 	eor	w8, w12, w15
  4065cc:	b2400421 	orr	x1, x1, #0x3
  4065d0:	1a9f1400 	csinc	w0, w0, wzr, ne  // ne = any
  4065d4:	12001d0a 	and	w10, w8, #0xff
  4065d8:	91402063 	add	x3, x3, #0x8, lsl #12
  4065dc:	f100283f 	cmp	x1, #0xa
  4065e0:	92401d08 	and	x8, x8, #0xff
  4065e4:	d2800062 	mov	x2, #0x3                   	// #3
  4065e8:	540030ac 	b.gt	0x406bfc
  4065ec:	d280002c 	mov	x12, #0x1                   	// #1
  4065f0:	d280a60e 	mov	x14, #0x530                 	// #1328
  4065f4:	9ac12181 	lsl	x1, x12, x1
  4065f8:	ea0e003f 	tst	x1, x14
  4065fc:	54001001 	b.ne	0x4067fc  // b.any
  406600:	d280480e 	mov	x14, #0x240                 	// #576
  406604:	ea0e003f 	tst	x1, x14
  406608:	54000ee1 	b.ne	0x4067e4  // b.any
  40660c:	d280110c 	mov	x12, #0x88                  	// #136
  406610:	ea0c003f 	tst	x1, x12
  406614:	540000a0 	b.eq	0x406628  // b.none
  406618:	aa0403e7 	mov	x7, x4
  40661c:	aa0603e5 	mov	x5, x6
  406620:	aa0203f0 	mov	x16, x2
  406624:	17ffffb7 	b	0x406500
  406628:	d360fcad 	lsr	x13, x5, #32
  40662c:	92407ccc 	and	x12, x6, #0xffffffff
  406630:	92407caf 	and	x15, x5, #0xffffffff
  406634:	d360fcc6 	lsr	x6, x6, #32
  406638:	92407c92 	and	x18, x4, #0xffffffff
  40663c:	d360fc82 	lsr	x2, x4, #32
  406640:	9b0c7da4 	mul	x4, x13, x12
  406644:	a9025bf5 	stp	x21, x22, [sp, #32]
  406648:	d360fcf6 	lsr	x22, x7, #32
  40664c:	92407ce5 	and	x5, x7, #0xffffffff
  406650:	9b0f7d90 	mul	x16, x12, x15
  406654:	9b0f10c7 	madd	x7, x6, x15, x4
  406658:	a90153f3 	stp	x19, x20, [sp, #16]
  40665c:	9b127da1 	mul	x1, x13, x18
  406660:	9b127df1 	mul	x17, x15, x18
  406664:	92407e1e 	and	x30, x16, #0xffffffff
  406668:	9b0f044f 	madd	x15, x2, x15, x1
  40666c:	8b5080f0 	add	x16, x7, x16, lsr #32
  406670:	9b0c7ed5 	mul	x21, x22, x12
  406674:	eb10009f 	cmp	x4, x16
  406678:	9b127ed4 	mul	x20, x22, x18
  40667c:	d2c0002e 	mov	x14, #0x100000000           	// #4294967296
  406680:	9b067db3 	mul	x19, x13, x6
  406684:	8b5181ef 	add	x15, x15, x17, lsr #32
  406688:	9b057d8c 	mul	x12, x12, x5
  40668c:	92407e31 	and	x17, x17, #0xffffffff
  406690:	9b127cb2 	mul	x18, x5, x18
  406694:	8b0e0264 	add	x4, x19, x14
  406698:	9b0554c7 	madd	x7, x6, x5, x21
  40669c:	9a938093 	csel	x19, x4, x19, hi  // hi = pmore
  4066a0:	9b055045 	madd	x5, x2, x5, x20
  4066a4:	eb0f003f 	cmp	x1, x15
  4066a8:	9b027dad 	mul	x13, x13, x2
  4066ac:	8b0f8231 	add	x17, x17, x15, lsl #32
  4066b0:	9b167cc6 	mul	x6, x6, x22
  4066b4:	8b4c80e7 	add	x7, x7, x12, lsr #32
  4066b8:	8b5280a5 	add	x5, x5, x18, lsr #32
  4066bc:	8b0e01a4 	add	x4, x13, x14
  4066c0:	9b167c42 	mul	x2, x2, x22
  4066c4:	9a8d808d 	csel	x13, x4, x13, hi  // hi = pmore
  4066c8:	92407e41 	and	x1, x18, #0xffffffff
  4066cc:	eb0702bf 	cmp	x21, x7
  4066d0:	8b0e00c4 	add	x4, x6, x14
  4066d4:	8b1083de 	add	x30, x30, x16, lsl #32
  4066d8:	9a868086 	csel	x6, x4, x6, hi  // hi = pmore
  4066dc:	8b4f81ad 	add	x13, x13, x15, lsr #32
  4066e0:	eb05029f 	cmp	x20, x5
  4066e4:	8b058021 	add	x1, x1, x5, lsl #32
  4066e8:	8b508230 	add	x16, x17, x16, lsr #32
  4066ec:	8b0e004e 	add	x14, x2, x14
  4066f0:	9a8281c2 	csel	x2, x14, x2, hi  // hi = pmore
  4066f4:	8b100270 	add	x16, x19, x16
  4066f8:	ab0d0021 	adds	x1, x1, x13
  4066fc:	92407d8c 	and	x12, x12, #0xffffffff
  406700:	9a9f37ed 	cset	x13, cs  // cs = hs, nlast
  406704:	eb11021f 	cmp	x16, x17
  406708:	9a9f27e4 	cset	x4, cc  // cc = lo, ul, last
  40670c:	8b07818c 	add	x12, x12, x7, lsl #32
  406710:	ab040021 	adds	x1, x1, x4
  406714:	d360fca5 	lsr	x5, x5, #32
  406718:	9a9f37e4 	cset	x4, cs  // cs = hs, nlast
  40671c:	f10001bf 	cmp	x13, #0x0
  406720:	fa400880 	ccmp	x4, #0x0, #0x0, eq  // eq = none
  406724:	8b4780c7 	add	x7, x6, x7, lsr #32
  406728:	9a8504a5 	cinc	x5, x5, ne  // ne = any
  40672c:	ab0c0206 	adds	x6, x16, x12
  406730:	9a9f37e4 	cset	x4, cs  // cs = hs, nlast
  406734:	ab070021 	adds	x1, x1, x7
  406738:	9a9f37e7 	cset	x7, cs  // cs = hs, nlast
  40673c:	ab040024 	adds	x4, x1, x4
  406740:	9a9f37e1 	cset	x1, cs  // cs = hs, nlast
  406744:	f10000ff 	cmp	x7, #0x0
  406748:	aa0637de 	orr	x30, x30, x6, lsl #13
  40674c:	fa400820 	ccmp	x1, #0x0, #0x0, eq  // eq = none
  406750:	9a820441 	cinc	x1, x2, ne  // ne = any
  406754:	f10003df 	cmp	x30, #0x0
  406758:	8b050021 	add	x1, x1, x5
  40675c:	9a9f07e2 	cset	x2, ne  // ne = any
  406760:	aa46cc46 	orr	x6, x2, x6, lsr #51
  406764:	aa0434c6 	orr	x6, x6, x4, lsl #13
  406768:	93c4cc24 	extr	x4, x1, x4, #51
  40676c:	b63818a1 	tbz	x1, #39, 0x406a80
  406770:	a94153f3 	ldp	x19, x20, [sp, #16]
  406774:	924000c1 	and	x1, x6, #0x1
  406778:	a9425bf5 	ldp	x21, x22, [sp, #32]
  40677c:	aa460426 	orr	x6, x1, x6, lsr #1
  406780:	aa04fcc6 	orr	x6, x6, x4, lsl #63
  406784:	d341fc84 	lsr	x4, x4, #1
  406788:	d287ffe1 	mov	x1, #0x3fff                	// #16383
  40678c:	8b010062 	add	x2, x3, x1
  406790:	f100005f 	cmp	x2, #0x0
  406794:	54000ccd 	b.le	0x40692c
  406798:	f24008df 	tst	x6, #0x7
  40679c:	54000100 	b.eq	0x4067bc  // b.none
  4067a0:	926a0561 	and	x1, x11, #0xc00000
  4067a4:	321c0000 	orr	w0, w0, #0x10
  4067a8:	f150003f 	cmp	x1, #0x400, lsl #12
  4067ac:	54001e40 	b.eq	0x406b74  // b.none
  4067b0:	f160003f 	cmp	x1, #0x800, lsl #12
  4067b4:	54001b40 	b.eq	0x406b1c  // b.none
  4067b8:	b4001a61 	cbz	x1, 0x406b04
  4067bc:	b6a00064 	tbz	x4, #52, 0x4067c8
  4067c0:	924bf884 	and	x4, x4, #0xffefffffffffffff
  4067c4:	91401062 	add	x2, x3, #0x4, lsl #12
  4067c8:	d28fffc1 	mov	x1, #0x7ffe                	// #32766
  4067cc:	eb01005f 	cmp	x2, x1
  4067d0:	5400142c 	b.gt	0x406a54
  4067d4:	12003841 	and	w1, w2, #0x7fff
  4067d8:	93c60c85 	extr	x5, x4, x6, #3
  4067dc:	d343c884 	ubfx	x4, x4, #3, #48
  4067e0:	17ffff70 	b	0x4065a0
  4067e4:	2a0c03e0 	mov	w0, w12
  4067e8:	5280000a 	mov	w10, #0x0                   	// #0
  4067ec:	92ffffe4 	mov	x4, #0xffffffffffff        	// #281474976710655
  4067f0:	92800005 	mov	x5, #0xffffffffffffffff    	// #-1
  4067f4:	528fffe1 	mov	w1, #0x7fff                	// #32767
  4067f8:	17ffff6a 	b	0x4065a0
  4067fc:	2a0a03ef 	mov	w15, w10
  406800:	aa0803ed 	mov	x13, x8
  406804:	17ffff3f 	b	0x406500
  406808:	aa0100e5 	orr	x5, x7, x1
  40680c:	b4000845 	cbz	x5, 0x406914
  406810:	b4001107 	cbz	x7, 0x406a30
  406814:	dac010e0 	clz	x0, x7
  406818:	d1003c04 	sub	x4, x0, #0xf
  40681c:	11000c85 	add	w5, w4, #0x3
  406820:	528007a3 	mov	w3, #0x3d                  	// #61
  406824:	4b040063 	sub	w3, w3, w4
  406828:	9ac520e4 	lsl	x4, x7, x5
  40682c:	9ac32423 	lsr	x3, x1, x3
  406830:	aa040067 	orr	x7, x3, x4
  406834:	9ac52025 	lsl	x5, x1, x5
  406838:	d37ffc48 	lsr	x8, x2, #63
  40683c:	9287fdc3 	mov	x3, #0xffffffffffffc011    	// #-16367
  406840:	d340bc44 	ubfx	x4, x2, #0, #48
  406844:	cb000063 	sub	x3, x3, x0
  406848:	12001d0f 	and	w15, w8, #0xff
  40684c:	aa0803ed 	mov	x13, x8
  406850:	d370f849 	ubfx	x9, x2, #48, #15
  406854:	d2800001 	mov	x1, #0x0                   	// #0
  406858:	d2800010 	mov	x16, #0x0                   	// #0
  40685c:	52800000 	mov	w0, #0x0                   	// #0
  406860:	35ffe269 	cbnz	w9, 0x4064ac
  406864:	d503201f 	nop
  406868:	aa060082 	orr	x2, x4, x6
  40686c:	b4000382 	cbz	x2, 0x4068dc
  406870:	b4000ce4 	cbz	x4, 0x406a0c
  406874:	dac01089 	clz	x9, x4
  406878:	d1003d22 	sub	x2, x9, #0xf
  40687c:	11000c4a 	add	w10, w2, #0x3
  406880:	528007a8 	mov	w8, #0x3d                  	// #61
  406884:	4b020108 	sub	w8, w8, w2
  406888:	9aca2082 	lsl	x2, x4, x10
  40688c:	9ac824c8 	lsr	x8, x6, x8
  406890:	aa020104 	orr	x4, x8, x2
  406894:	9aca20c6 	lsl	x6, x6, x10
  406898:	cb090069 	sub	x9, x3, x9
  40689c:	9287fdca 	mov	x10, #0xffffffffffffc011    	// #-16367
  4068a0:	d2800002 	mov	x2, #0x0                   	// #0
  4068a4:	8b0a0129 	add	x9, x9, x10
  4068a8:	17ffff0c 	b	0x4064d8
  4068ac:	aa0100e5 	orr	x5, x7, x1
  4068b0:	b5000225 	cbnz	x5, 0x4068f4
  4068b4:	d2800007 	mov	x7, #0x0                   	// #0
  4068b8:	d2800101 	mov	x1, #0x8                   	// #8
  4068bc:	d28fffe3 	mov	x3, #0x7fff                	// #32767
  4068c0:	d2800050 	mov	x16, #0x2                   	// #2
  4068c4:	52800000 	mov	w0, #0x0                   	// #0
  4068c8:	17fffef3 	b	0x406494
  4068cc:	528fffe1 	mov	w1, #0x7fff                	// #32767
  4068d0:	d2800004 	mov	x4, #0x0                   	// #0
  4068d4:	d2800005 	mov	x5, #0x0                   	// #0
  4068d8:	17ffff32 	b	0x4065a0
  4068dc:	b2400021 	orr	x1, x1, #0x1
  4068e0:	aa0303e9 	mov	x9, x3
  4068e4:	d2800004 	mov	x4, #0x0                   	// #0
  4068e8:	d2800006 	mov	x6, #0x0                   	// #0
  4068ec:	d2800022 	mov	x2, #0x1                   	// #1
  4068f0:	17fffefa 	b	0x4064d8
  4068f4:	d36ffce0 	lsr	x0, x7, #47
  4068f8:	aa0103e5 	mov	x5, x1
  4068fc:	d2400000 	eor	x0, x0, #0x1
  406900:	d2800181 	mov	x1, #0xc                   	// #12
  406904:	12000000 	and	w0, w0, #0x1
  406908:	d28fffe3 	mov	x3, #0x7fff                	// #32767
  40690c:	d2800070 	mov	x16, #0x3                   	// #3
  406910:	17fffee1 	b	0x406494
  406914:	d2800007 	mov	x7, #0x0                   	// #0
  406918:	d2800081 	mov	x1, #0x4                   	// #4
  40691c:	d2800003 	mov	x3, #0x0                   	// #0
  406920:	d2800030 	mov	x16, #0x1                   	// #1
  406924:	52800000 	mov	w0, #0x0                   	// #0
  406928:	17fffedb 	b	0x406494
  40692c:	d2800021 	mov	x1, #0x1                   	// #1
  406930:	cb020022 	sub	x2, x1, x2
  406934:	f101d05f 	cmp	x2, #0x74
  406938:	540003cc 	b.gt	0x4069b0
  40693c:	f100fc5f 	cmp	x2, #0x3f
  406940:	54000a8d 	b.le	0x406a90
  406944:	52801001 	mov	w1, #0x80                  	// #128
  406948:	4b020021 	sub	w1, w1, w2
  40694c:	f101005f 	cmp	x2, #0x40
  406950:	51010042 	sub	w2, w2, #0x40
  406954:	9ac12081 	lsl	x1, x4, x1
  406958:	aa0100c1 	orr	x1, x6, x1
  40695c:	9a861026 	csel	x6, x1, x6, ne  // ne = any
  406960:	9ac22482 	lsr	x2, x4, x2
  406964:	f10000df 	cmp	x6, #0x0
  406968:	9a9f07e5 	cset	x5, ne  // ne = any
  40696c:	aa0200a5 	orr	x5, x5, x2
  406970:	f24008a2 	ands	x2, x5, #0x7
  406974:	54000a80 	b.eq	0x406ac4  // b.none
  406978:	d2800002 	mov	x2, #0x0                   	// #0
  40697c:	926a056b 	and	x11, x11, #0xc00000
  406980:	321c0000 	orr	w0, w0, #0x10
  406984:	f150017f 	cmp	x11, #0x400, lsl #12
  406988:	54001260 	b.eq	0x406bd4  // b.none
  40698c:	f160017f 	cmp	x11, #0x800, lsl #12
  406990:	540012c0 	b.eq	0x406be8  // b.none
  406994:	b4000ccb 	cbz	x11, 0x406b2c
  406998:	b7980d62 	tbnz	x2, #51, 0x406b44
  40699c:	d343c844 	ubfx	x4, x2, #3, #48
  4069a0:	93c50c45 	extr	x5, x2, x5, #3
  4069a4:	321d0000 	orr	w0, w0, #0x8
  4069a8:	52800001 	mov	w1, #0x0                   	// #0
  4069ac:	1400000d 	b	0x4069e0
  4069b0:	aa0400c5 	orr	x5, x6, x4
  4069b4:	b4000105 	cbz	x5, 0x4069d4
  4069b8:	926a056b 	and	x11, x11, #0xc00000
  4069bc:	321c0000 	orr	w0, w0, #0x10
  4069c0:	f150017f 	cmp	x11, #0x400, lsl #12
  4069c4:	cb080025 	sub	x5, x1, x8
  4069c8:	54000060 	b.eq	0x4069d4  // b.none
  4069cc:	f160017f 	cmp	x11, #0x800, lsl #12
  4069d0:	9a9f0105 	csel	x5, x8, xzr, eq  // eq = none
  4069d4:	321d0000 	orr	w0, w0, #0x8
  4069d8:	52800001 	mov	w1, #0x0                   	// #0
  4069dc:	d2800004 	mov	x4, #0x0                   	// #0
  4069e0:	d2800003 	mov	x3, #0x0                   	// #0
  4069e4:	9e6700a0 	fmov	d0, x5
  4069e8:	b340bc83 	bfxil	x3, x4, #0, #48
  4069ec:	b3503823 	bfi	x3, x1, #48, #15
  4069f0:	b3410143 	bfi	x3, x10, #63, #1
  4069f4:	9eaf0060 	fmov	v0.d[1], x3
  4069f8:	3d800fe0 	str	q0, [sp, #48]
  4069fc:	94000441 	bl	0x407b00
  406a00:	3dc00fe0 	ldr	q0, [sp, #48]
  406a04:	a8c57bfd 	ldp	x29, x30, [sp], #80
  406a08:	d65f03c0 	ret
  406a0c:	dac010c9 	clz	x9, x6
  406a10:	9100c522 	add	x2, x9, #0x31
  406a14:	91010129 	add	x9, x9, #0x40
  406a18:	f100f05f 	cmp	x2, #0x3c
  406a1c:	54fff30d 	b.le	0x40687c
  406a20:	5100f442 	sub	w2, w2, #0x3d
  406a24:	9ac220c4 	lsl	x4, x6, x2
  406a28:	d2800006 	mov	x6, #0x0                   	// #0
  406a2c:	17ffff9b 	b	0x406898
  406a30:	dac01023 	clz	x3, x1
  406a34:	9100c464 	add	x4, x3, #0x31
  406a38:	91010060 	add	x0, x3, #0x40
  406a3c:	f100f09f 	cmp	x4, #0x3c
  406a40:	54ffeeed 	b.le	0x40681c
  406a44:	5100f484 	sub	w4, w4, #0x3d
  406a48:	d2800005 	mov	x5, #0x0                   	// #0
  406a4c:	9ac42027 	lsl	x7, x1, x4
  406a50:	17ffff7a 	b	0x406838
  406a54:	926a0565 	and	x5, x11, #0xc00000
  406a58:	f15000bf 	cmp	x5, #0x400, lsl #12
  406a5c:	540007e0 	b.eq	0x406b58  // b.none
  406a60:	f16000bf 	cmp	x5, #0x800, lsl #12
  406a64:	54000420 	b.eq	0x406ae8  // b.none
  406a68:	b40003a5 	cbz	x5, 0x406adc
  406a6c:	92ffffe4 	mov	x4, #0xffffffffffff        	// #281474976710655
  406a70:	92800005 	mov	x5, #0xffffffffffffffff    	// #-1
  406a74:	52800282 	mov	w2, #0x14                  	// #20
  406a78:	2a020000 	orr	w0, w0, w2
  406a7c:	17ffffd9 	b	0x4069e0
  406a80:	aa0903e3 	mov	x3, x9
  406a84:	a94153f3 	ldp	x19, x20, [sp, #16]
  406a88:	a9425bf5 	ldp	x21, x22, [sp, #32]
  406a8c:	17ffff3f 	b	0x406788
  406a90:	52800801 	mov	w1, #0x40                  	// #64
  406a94:	4b020021 	sub	w1, w1, w2
  406a98:	9ac224c3 	lsr	x3, x6, x2
  406a9c:	9ac120c6 	lsl	x6, x6, x1
  406aa0:	f10000df 	cmp	x6, #0x0
  406aa4:	9ac12085 	lsl	x5, x4, x1
  406aa8:	9a9f07e1 	cset	x1, ne  // ne = any
  406aac:	aa0300a5 	orr	x5, x5, x3
  406ab0:	9ac22482 	lsr	x2, x4, x2
  406ab4:	aa0100a5 	orr	x5, x5, x1
  406ab8:	f24008bf 	tst	x5, #0x7
  406abc:	54fff601 	b.ne	0x40697c  // b.any
  406ac0:	b79809a2 	tbnz	x2, #51, 0x406bf4
  406ac4:	d343c844 	ubfx	x4, x2, #3, #48
  406ac8:	93c50c45 	extr	x5, x2, x5, #3
  406acc:	52800001 	mov	w1, #0x0                   	// #0
  406ad0:	365fd68b 	tbz	w11, #11, 0x4065a0
  406ad4:	321d0000 	orr	w0, w0, #0x8
  406ad8:	17ffffc2 	b	0x4069e0
  406adc:	528fffe1 	mov	w1, #0x7fff                	// #32767
  406ae0:	d2800004 	mov	x4, #0x0                   	// #0
  406ae4:	17ffffe4 	b	0x406a74
  406ae8:	f100011f 	cmp	x8, #0x0
  406aec:	528fffe2 	mov	w2, #0x7fff                	// #32767
  406af0:	92ffffe4 	mov	x4, #0xffffffffffff        	// #281474976710655
  406af4:	1a820021 	csel	w1, w1, w2, eq  // eq = none
  406af8:	9a9f0084 	csel	x4, x4, xzr, eq  // eq = none
  406afc:	da9f13e5 	csetm	x5, eq  // eq = none
  406b00:	17ffffdd 	b	0x406a74
  406b04:	92400cc1 	and	x1, x6, #0xf
  406b08:	f100103f 	cmp	x1, #0x4
  406b0c:	54ffe580 	b.eq	0x4067bc  // b.none
  406b10:	b10010c6 	adds	x6, x6, #0x4
  406b14:	9a843484 	cinc	x4, x4, cs  // cs = hs, nlast
  406b18:	17ffff29 	b	0x4067bc
  406b1c:	b4ffe508 	cbz	x8, 0x4067bc
  406b20:	b10020c6 	adds	x6, x6, #0x8
  406b24:	9a843484 	cinc	x4, x4, cs  // cs = hs, nlast
  406b28:	17ffff25 	b	0x4067bc
  406b2c:	92400ca1 	and	x1, x5, #0xf
  406b30:	f100103f 	cmp	x1, #0x4
  406b34:	54000060 	b.eq	0x406b40  // b.none
  406b38:	b10010a5 	adds	x5, x5, #0x4
  406b3c:	9a823442 	cinc	x2, x2, cs  // cs = hs, nlast
  406b40:	b69ff2e2 	tbz	x2, #51, 0x40699c
  406b44:	321d0000 	orr	w0, w0, #0x8
  406b48:	52800021 	mov	w1, #0x1                   	// #1
  406b4c:	d2800004 	mov	x4, #0x0                   	// #0
  406b50:	d2800005 	mov	x5, #0x0                   	// #0
  406b54:	17ffffa3 	b	0x4069e0
  406b58:	f100011f 	cmp	x8, #0x0
  406b5c:	528fffe2 	mov	w2, #0x7fff                	// #32767
  406b60:	92ffffe4 	mov	x4, #0xffffffffffff        	// #281474976710655
  406b64:	1a821021 	csel	w1, w1, w2, ne  // ne = any
  406b68:	9a9f1084 	csel	x4, x4, xzr, ne  // ne = any
  406b6c:	da9f03e5 	csetm	x5, ne  // ne = any
  406b70:	17ffffc1 	b	0x406a74
  406b74:	b5ffe248 	cbnz	x8, 0x4067bc
  406b78:	17ffffea 	b	0x406b20
  406b7c:	d2800044 	mov	x4, #0x2                   	// #2
  406b80:	f1003c3f 	cmp	x1, #0xf
  406b84:	54000121 	b.ne	0x406ba8  // b.any
  406b88:	b67801c7 	tbz	x7, #47, 0x406bc0
  406b8c:	b77801a2 	tbnz	x2, #47, 0x406bc0
  406b90:	b2510044 	orr	x4, x2, #0x800000000000
  406b94:	2a0f03ea 	mov	w10, w15
  406b98:	9240bc84 	and	x4, x4, #0xffffffffffff
  406b9c:	aa0603e5 	mov	x5, x6
  406ba0:	528fffe1 	mov	w1, #0x7fff                	// #32767
  406ba4:	17fffe7f 	b	0x4065a0
  406ba8:	f1002c3f 	cmp	x1, #0xb
  406bac:	54ffca61 	b.ne	0x4064f8  // b.any
  406bb0:	aa0203e7 	mov	x7, x2
  406bb4:	aa0603e5 	mov	x5, x6
  406bb8:	aa0403f0 	mov	x16, x4
  406bbc:	17fffe51 	b	0x406500
  406bc0:	b25100e4 	orr	x4, x7, #0x800000000000
  406bc4:	2a0c03ea 	mov	w10, w12
  406bc8:	9240bc84 	and	x4, x4, #0xffffffffffff
  406bcc:	528fffe1 	mov	w1, #0x7fff                	// #32767
  406bd0:	17fffe74 	b	0x4065a0
  406bd4:	b5fffb68 	cbnz	x8, 0x406b40
  406bd8:	b10020a5 	adds	x5, x5, #0x8
  406bdc:	9a823442 	cinc	x2, x2, cs  // cs = hs, nlast
  406be0:	b79ffb22 	tbnz	x2, #51, 0x406b44
  406be4:	17ffff6e 	b	0x40699c
  406be8:	b5ffff88 	cbnz	x8, 0x406bd8
  406bec:	b79ffac2 	tbnz	x2, #51, 0x406b44
  406bf0:	17ffff6b 	b	0x40699c
  406bf4:	321c0000 	orr	w0, w0, #0x10
  406bf8:	17ffffd3 	b	0x406b44
  406bfc:	aa0403e2 	mov	x2, x4
  406c00:	d2800064 	mov	x4, #0x3                   	// #3
  406c04:	17ffffdf 	b	0x406b80
  406c08:	2a0f03ea 	mov	w10, w15
  406c0c:	aa0d03e8 	mov	x8, x13
  406c10:	17fffe43 	b	0x40651c
  406c14:	d503201f 	nop
  406c18:	a9bd7bfd 	stp	x29, x30, [sp, #-48]!
  406c1c:	910003fd 	mov	x29, sp
  406c20:	3d8007e0 	str	q0, [sp, #16]
  406c24:	3d800be1 	str	q1, [sp, #32]
  406c28:	a94107e5 	ldp	x5, x1, [sp, #16]
  406c2c:	a9420be0 	ldp	x0, x2, [sp, #32]
  406c30:	d53b440c 	mrs	x12, fpcr
  406c34:	aa0003e9 	mov	x9, x0
  406c38:	d370f840 	ubfx	x0, x2, #48, #15
  406c3c:	d37ffc26 	lsr	x6, x1, #63
  406c40:	d370f827 	ubfx	x7, x1, #48, #15
  406c44:	d37dbc23 	ubfiz	x3, x1, #3, #48
  406c48:	aa0003ed 	mov	x13, x0
  406c4c:	d37ffc44 	lsr	x4, x2, #63
  406c50:	d37dbc42 	ubfiz	x2, x2, #3, #48
  406c54:	aa0603eb 	mov	x11, x6
  406c58:	12001cc8 	and	w8, w6, #0xff
  406c5c:	aa0603ee 	mov	x14, x6
  406c60:	4b0000e0 	sub	w0, w7, w0
  406c64:	aa0703e1 	mov	x1, x7
  406c68:	aa45f463 	orr	x3, x3, x5, lsr #61
  406c6c:	d28fffe7 	mov	x7, #0x7fff                	// #32767
  406c70:	12001c84 	and	w4, w4, #0xff
  406c74:	eb0701bf 	cmp	x13, x7
  406c78:	aa49f442 	orr	x2, x2, x9, lsr #61
  406c7c:	d37df0a6 	lsl	x6, x5, #3
  406c80:	d37df12a 	lsl	x10, x9, #3
  406c84:	54000b80 	b.eq	0x406df4  // b.none
  406c88:	52000084 	eor	w4, w4, #0x1
  406c8c:	92401c84 	and	x4, x4, #0xff
  406c90:	eb04017f 	cmp	x11, x4
  406c94:	54000fc0 	b.eq	0x406e8c  // b.none
  406c98:	7100001f 	cmp	w0, #0x0
  406c9c:	54000bad 	b.le	0x406e10
  406ca0:	b50016ed 	cbnz	x13, 0x406f7c
  406ca4:	aa0a0044 	orr	x4, x2, x10
  406ca8:	b40025a4 	cbz	x4, 0x40715c
  406cac:	71000400 	subs	w0, w0, #0x1
  406cb0:	54003c00 	b.eq	0x407430  // b.none
  406cb4:	d28fffe4 	mov	x4, #0x7fff                	// #32767
  406cb8:	eb04003f 	cmp	x1, x4
  406cbc:	540023a0 	b.eq	0x407130  // b.none
  406cc0:	7101d01f 	cmp	w0, #0x74
  406cc4:	5400244c 	b.gt	0x40714c
  406cc8:	7100fc1f 	cmp	w0, #0x3f
  406ccc:	5400314c 	b.gt	0x4072f4
  406cd0:	52800804 	mov	w4, #0x40                  	// #64
  406cd4:	4b000084 	sub	w4, w4, w0
  406cd8:	9ac02547 	lsr	x7, x10, x0
  406cdc:	9ac4214a 	lsl	x10, x10, x4
  406ce0:	f100015f 	cmp	x10, #0x0
  406ce4:	9ac42044 	lsl	x4, x2, x4
  406ce8:	9a9f07e5 	cset	x5, ne  // ne = any
  406cec:	aa070084 	orr	x4, x4, x7
  406cf0:	9ac02442 	lsr	x2, x2, x0
  406cf4:	aa050084 	orr	x4, x4, x5
  406cf8:	cb020063 	sub	x3, x3, x2
  406cfc:	eb0400c6 	subs	x6, x6, x4
  406d00:	da1f0063 	sbc	x3, x3, xzr
  406d04:	9240c865 	and	x5, x3, #0x7ffffffffffff
  406d08:	b6981003 	tbz	x3, #51, 0x406f08
  406d0c:	b4002045 	cbz	x5, 0x407114
  406d10:	dac010a0 	clz	x0, x5
  406d14:	51003000 	sub	w0, w0, #0xc
  406d18:	4b0003e3 	neg	w3, w0
  406d1c:	9ac020a2 	lsl	x2, x5, x0
  406d20:	9ac020c5 	lsl	x5, x6, x0
  406d24:	9ac324c6 	lsr	x6, x6, x3
  406d28:	aa0200c3 	orr	x3, x6, x2
  406d2c:	eb20c03f 	cmp	x1, w0, sxtw
  406d30:	93407c02 	sxtw	x2, w0
  406d34:	54001e0c 	b.gt	0x4070f4
  406d38:	4b010001 	sub	w1, w0, w1
  406d3c:	11000420 	add	w0, w1, #0x1
  406d40:	7100fc1f 	cmp	w0, #0x3f
  406d44:	54002bcc 	b.gt	0x4072bc
  406d48:	52800801 	mov	w1, #0x40                  	// #64
  406d4c:	4b000021 	sub	w1, w1, w0
  406d50:	9ac024a2 	lsr	x2, x5, x0
  406d54:	9ac120a5 	lsl	x5, x5, x1
  406d58:	f10000bf 	cmp	x5, #0x0
  406d5c:	9ac12066 	lsl	x6, x3, x1
  406d60:	9a9f07e1 	cset	x1, ne  // ne = any
  406d64:	aa0200c6 	orr	x6, x6, x2
  406d68:	9ac02463 	lsr	x3, x3, x0
  406d6c:	aa0100c6 	orr	x6, x6, x1
  406d70:	aa0300c7 	orr	x7, x6, x3
  406d74:	b4000d47 	cbz	x7, 0x406f1c
  406d78:	924008c0 	and	x0, x6, #0x7
  406d7c:	d2800001 	mov	x1, #0x0                   	// #0
  406d80:	52800024 	mov	w4, #0x1                   	// #1
  406d84:	b4001fe0 	cbz	x0, 0x407180
  406d88:	926a0582 	and	x2, x12, #0xc00000
  406d8c:	f150005f 	cmp	x2, #0x400, lsl #12
  406d90:	540019e0 	b.eq	0x4070cc  // b.none
  406d94:	f160005f 	cmp	x2, #0x800, lsl #12
  406d98:	540018a0 	b.eq	0x4070ac  // b.none
  406d9c:	b40019e2 	cbz	x2, 0x4070d8
  406da0:	924d0062 	and	x2, x3, #0x8000000000000
  406da4:	52800200 	mov	w0, #0x10                  	// #16
  406da8:	34000044 	cbz	w4, 0x406db0
  406dac:	321d0000 	orr	w0, w0, #0x8
  406db0:	b4000582 	cbz	x2, 0x406e60
  406db4:	91000421 	add	x1, x1, #0x1
  406db8:	d28fffe2 	mov	x2, #0x7fff                	// #32767
  406dbc:	eb02003f 	cmp	x1, x2
  406dc0:	540010a0 	b.eq	0x406fd4  // b.none
  406dc4:	d343c867 	ubfx	x7, x3, #3, #48
  406dc8:	93c60c65 	extr	x5, x3, x6, #3
  406dcc:	12003821 	and	w1, w1, #0x7fff
  406dd0:	d2800003 	mov	x3, #0x0                   	// #0
  406dd4:	2a083c21 	orr	w1, w1, w8, lsl #15
  406dd8:	b340bce3 	bfxil	x3, x7, #0, #48
  406ddc:	9e6700a0 	fmov	d0, x5
  406de0:	b3503c23 	bfi	x3, x1, #48, #16
  406de4:	9eaf0060 	fmov	v0.d[1], x3
  406de8:	35001240 	cbnz	w0, 0x407030
  406dec:	a8c37bfd 	ldp	x29, x30, [sp], #48
  406df0:	d65f03c0 	ret
  406df4:	aa0a0047 	orr	x7, x2, x10
  406df8:	b4fff487 	cbz	x7, 0x406c88
  406dfc:	92401c84 	and	x4, x4, #0xff
  406e00:	eb04017f 	cmp	x11, x4
  406e04:	54001200 	b.eq	0x407044  // b.none
  406e08:	7100001f 	cmp	w0, #0x0
  406e0c:	54000b8c 	b.gt	0x406f7c
  406e10:	34000920 	cbz	w0, 0x406f34
  406e14:	2a0403e8 	mov	w8, w4
  406e18:	b50021c1 	cbnz	x1, 0x407250
  406e1c:	aa060061 	orr	x1, x3, x6
  406e20:	b4000641 	cbz	x1, 0x406ee8
  406e24:	3100041f 	cmn	w0, #0x1
  406e28:	54003b40 	b.eq	0x407590  // b.none
  406e2c:	d28fffe1 	mov	x1, #0x7fff                	// #32767
  406e30:	2a2003e0 	mvn	w0, w0
  406e34:	eb0101bf 	cmp	x13, x1
  406e38:	54002161 	b.ne	0x407264  // b.any
  406e3c:	aa0a0040 	orr	x0, x2, x10
  406e40:	92401d0b 	and	x11, x8, #0xff
  406e44:	b4001c20 	cbz	x0, 0x4071c8
  406e48:	d372fc40 	lsr	x0, x2, #50
  406e4c:	aa0a03e6 	mov	x6, x10
  406e50:	d2400000 	eor	x0, x0, #0x1
  406e54:	aa0203e3 	mov	x3, x2
  406e58:	12000000 	and	w0, w0, #0x1
  406e5c:	d28fffe1 	mov	x1, #0x7fff                	// #32767
  406e60:	d28fffe2 	mov	x2, #0x7fff                	// #32767
  406e64:	93c60c65 	extr	x5, x3, x6, #3
  406e68:	d343fc67 	lsr	x7, x3, #3
  406e6c:	eb02003f 	cmp	x1, x2
  406e70:	540005c1 	b.ne	0x406f28  // b.any
  406e74:	aa0500e1 	orr	x1, x7, x5
  406e78:	b4004361 	cbz	x1, 0x4076e4
  406e7c:	b25100e7 	orr	x7, x7, #0x800000000000
  406e80:	528fffe1 	mov	w1, #0x7fff                	// #32767
  406e84:	9240bce7 	and	x7, x7, #0xffffffffffff
  406e88:	17ffffd2 	b	0x406dd0
  406e8c:	7100001f 	cmp	w0, #0x0
  406e90:	54000dad 	b.le	0x407044
  406e94:	b400078d 	cbz	x13, 0x406f84
  406e98:	b24d0042 	orr	x2, x2, #0x8000000000000
  406e9c:	d28fffe4 	mov	x4, #0x7fff                	// #32767
  406ea0:	eb04003f 	cmp	x1, x4
  406ea4:	54001460 	b.eq	0x407130  // b.none
  406ea8:	7101d01f 	cmp	w0, #0x74
  406eac:	54001fcc 	b.gt	0x4072a4
  406eb0:	7100fc1f 	cmp	w0, #0x3f
  406eb4:	5400246c 	b.gt	0x407340
  406eb8:	52800804 	mov	w4, #0x40                  	// #64
  406ebc:	4b000084 	sub	w4, w4, w0
  406ec0:	9ac02547 	lsr	x7, x10, x0
  406ec4:	9ac4214a 	lsl	x10, x10, x4
  406ec8:	f100015f 	cmp	x10, #0x0
  406ecc:	9ac42044 	lsl	x4, x2, x4
  406ed0:	9a9f07e5 	cset	x5, ne  // ne = any
  406ed4:	aa070084 	orr	x4, x4, x7
  406ed8:	9ac02442 	lsr	x2, x2, x0
  406edc:	aa050080 	orr	x0, x4, x5
  406ee0:	8b020063 	add	x3, x3, x2
  406ee4:	140000f3 	b	0x4072b0
  406ee8:	d28fffe0 	mov	x0, #0x7fff                	// #32767
  406eec:	eb0001bf 	cmp	x13, x0
  406ef0:	54003160 	b.eq	0x40751c  // b.none
  406ef4:	aa0203e3 	mov	x3, x2
  406ef8:	aa0a03e6 	mov	x6, x10
  406efc:	aa0d03e1 	mov	x1, x13
  406f00:	aa0403ee 	mov	x14, x4
  406f04:	d503201f 	nop
  406f08:	aa0300c7 	orr	x7, x6, x3
  406f0c:	924008c0 	and	x0, x6, #0x7
  406f10:	52800004 	mov	w4, #0x0                   	// #0
  406f14:	b5fff381 	cbnz	x1, 0x406d84
  406f18:	b5fff307 	cbnz	x7, 0x406d78
  406f1c:	d2800005 	mov	x5, #0x0                   	// #0
  406f20:	d2800001 	mov	x1, #0x0                   	// #0
  406f24:	52800000 	mov	w0, #0x0                   	// #0
  406f28:	9240bce7 	and	x7, x7, #0xffffffffffff
  406f2c:	12003821 	and	w1, w1, #0x7fff
  406f30:	17ffffa8 	b	0x406dd0
  406f34:	91000427 	add	x7, x1, #0x1
  406f38:	f27f34ff 	tst	x7, #0x7ffe
  406f3c:	54001721 	b.ne	0x407220  // b.any
  406f40:	aa06006b 	orr	x11, x3, x6
  406f44:	aa0a0047 	orr	x7, x2, x10
  406f48:	b5002341 	cbnz	x1, 0x4073b0
  406f4c:	b400278b 	cbz	x11, 0x40743c
  406f50:	b4002807 	cbz	x7, 0x407450
  406f54:	eb0a00c9 	subs	x9, x6, x10
  406f58:	eb0a00df 	cmp	x6, x10
  406f5c:	da020065 	sbc	x5, x3, x2
  406f60:	b69834c5 	tbz	x5, #51, 0x4075f8
  406f64:	eb060146 	subs	x6, x10, x6
  406f68:	2a0403e8 	mov	w8, w4
  406f6c:	da030043 	sbc	x3, x2, x3
  406f70:	aa0403ee 	mov	x14, x4
  406f74:	aa0300c7 	orr	x7, x6, x3
  406f78:	17ffff7f 	b	0x406d74
  406f7c:	b24d0042 	orr	x2, x2, #0x8000000000000
  406f80:	17ffff4d 	b	0x406cb4
  406f84:	aa0a0044 	orr	x4, x2, x10
  406f88:	b4000ea4 	cbz	x4, 0x40715c
  406f8c:	71000400 	subs	w0, w0, #0x1
  406f90:	54fff861 	b.ne	0x406e9c  // b.any
  406f94:	ab0a00c6 	adds	x6, x6, x10
  406f98:	9a030043 	adc	x3, x2, x3
  406f9c:	d503201f 	nop
  406fa0:	b69ffb43 	tbz	x3, #51, 0x406f08
  406fa4:	91000421 	add	x1, x1, #0x1
  406fa8:	d28fffe0 	mov	x0, #0x7fff                	// #32767
  406fac:	eb00003f 	cmp	x1, x0
  406fb0:	54002560 	b.eq	0x40745c  // b.none
  406fb4:	924000c0 	and	x0, x6, #0x1
  406fb8:	924cf862 	and	x2, x3, #0xfff7ffffffffffff
  406fbc:	aa460406 	orr	x6, x0, x6, lsr #1
  406fc0:	52800004 	mov	w4, #0x0                   	// #0
  406fc4:	aa03fcc6 	orr	x6, x6, x3, lsl #63
  406fc8:	d341fc43 	lsr	x3, x2, #1
  406fcc:	924008c0 	and	x0, x6, #0x7
  406fd0:	17ffff6d 	b	0x406d84
  406fd4:	926a0582 	and	x2, x12, #0xc00000
  406fd8:	b40001c2 	cbz	x2, 0x407010
  406fdc:	f150005f 	cmp	x2, #0x400, lsl #12
  406fe0:	54000160 	b.eq	0x40700c  // b.none
  406fe4:	f160005f 	cmp	x2, #0x800, lsl #12
  406fe8:	120001ce 	and	w14, w14, #0x1
  406fec:	1a9f01ce 	csel	w14, w14, wzr, eq  // eq = none
  406ff0:	3500010e 	cbnz	w14, 0x407010
  406ff4:	52800281 	mov	w1, #0x14                  	// #20
  406ff8:	92800005 	mov	x5, #0xffffffffffffffff    	// #-1
  406ffc:	2a010000 	orr	w0, w0, w1
  407000:	92fc0007 	mov	x7, #0x1fffffffffffffff    	// #2305843009213693951
  407004:	d28fffc1 	mov	x1, #0x7ffe                	// #32766
  407008:	17ffffc8 	b	0x406f28
  40700c:	b5ffff4e 	cbnz	x14, 0x406ff4
  407010:	52800281 	mov	w1, #0x14                  	// #20
  407014:	92401d0b 	and	x11, x8, #0xff
  407018:	2a010000 	orr	w0, w0, w1
  40701c:	d2800002 	mov	x2, #0x0                   	// #0
  407020:	9e670040 	fmov	d0, x2
  407024:	d341016b 	lsl	x11, x11, #63
  407028:	b2503963 	orr	x3, x11, #0x7fff000000000000
  40702c:	9eaf0060 	fmov	v0.d[1], x3
  407030:	3d8007e0 	str	q0, [sp, #16]
  407034:	940002b3 	bl	0x407b00
  407038:	3dc007e0 	ldr	q0, [sp, #16]
  40703c:	a8c37bfd 	ldp	x29, x30, [sp], #48
  407040:	d65f03c0 	ret
  407044:	34000ce0 	cbz	w0, 0x4071e0
  407048:	b4000aa1 	cbz	x1, 0x40719c
  40704c:	d28fffe1 	mov	x1, #0x7fff                	// #32767
  407050:	4b0003e0 	neg	w0, w0
  407054:	b24d0063 	orr	x3, x3, #0x8000000000000
  407058:	eb0101bf 	cmp	x13, x1
  40705c:	54000b00 	b.eq	0x4071bc  // b.none
  407060:	7101d01f 	cmp	w0, #0x74
  407064:	5400226c 	b.gt	0x4074b0
  407068:	7100fc1f 	cmp	w0, #0x3f
  40706c:	540027cc 	b.gt	0x407564
  407070:	52800801 	mov	w1, #0x40                  	// #64
  407074:	4b000021 	sub	w1, w1, w0
  407078:	9ac024c4 	lsr	x4, x6, x0
  40707c:	9ac120c6 	lsl	x6, x6, x1
  407080:	f10000df 	cmp	x6, #0x0
  407084:	9ac12066 	lsl	x6, x3, x1
  407088:	9a9f07e1 	cset	x1, ne  // ne = any
  40708c:	aa0400c6 	orr	x6, x6, x4
  407090:	9ac02460 	lsr	x0, x3, x0
  407094:	aa0100c6 	orr	x6, x6, x1
  407098:	8b000042 	add	x2, x2, x0
  40709c:	ab0a00c6 	adds	x6, x6, x10
  4070a0:	aa0d03e1 	mov	x1, x13
  4070a4:	9a823443 	cinc	x3, x2, cs  // cs = hs, nlast
  4070a8:	17ffffbe 	b	0x406fa0
  4070ac:	52800200 	mov	w0, #0x10                  	// #16
  4070b0:	b400006e 	cbz	x14, 0x4070bc
  4070b4:	b10020c6 	adds	x6, x6, #0x8
  4070b8:	9a833463 	cinc	x3, x3, cs  // cs = hs, nlast
  4070bc:	924d0062 	and	x2, x3, #0x8000000000000
  4070c0:	34ffe784 	cbz	w4, 0x406db0
  4070c4:	321d0000 	orr	w0, w0, #0x8
  4070c8:	17ffff3a 	b	0x406db0
  4070cc:	52800200 	mov	w0, #0x10                  	// #16
  4070d0:	b5ffff6e 	cbnz	x14, 0x4070bc
  4070d4:	17fffff8 	b	0x4070b4
  4070d8:	92400cc2 	and	x2, x6, #0xf
  4070dc:	52800200 	mov	w0, #0x10                  	// #16
  4070e0:	f100105f 	cmp	x2, #0x4
  4070e4:	54fffec0 	b.eq	0x4070bc  // b.none
  4070e8:	b10010c6 	adds	x6, x6, #0x4
  4070ec:	9a833463 	cinc	x3, x3, cs  // cs = hs, nlast
  4070f0:	17fffff3 	b	0x4070bc
  4070f4:	aa0503e6 	mov	x6, x5
  4070f8:	924cf863 	and	x3, x3, #0xfff7ffffffffffff
  4070fc:	cb020021 	sub	x1, x1, x2
  407100:	aa0300c7 	orr	x7, x6, x3
  407104:	924008c0 	and	x0, x6, #0x7
  407108:	52800004 	mov	w4, #0x0                   	// #0
  40710c:	b4fff061 	cbz	x1, 0x406f18
  407110:	17ffff1d 	b	0x406d84
  407114:	dac010c3 	clz	x3, x6
  407118:	1100d060 	add	w0, w3, #0x34
  40711c:	7100fc1f 	cmp	w0, #0x3f
  407120:	54ffdfcd 	b.le	0x406d18
  407124:	51003063 	sub	w3, w3, #0xc
  407128:	9ac320c3 	lsl	x3, x6, x3
  40712c:	17ffff00 	b	0x406d2c
  407130:	aa060060 	orr	x0, x3, x6
  407134:	b40004a0 	cbz	x0, 0x4071c8
  407138:	d372fc60 	lsr	x0, x3, #50
  40713c:	d28fffe1 	mov	x1, #0x7fff                	// #32767
  407140:	d2400000 	eor	x0, x0, #0x1
  407144:	12000000 	and	w0, w0, #0x1
  407148:	17ffff46 	b	0x406e60
  40714c:	aa0a0042 	orr	x2, x2, x10
  407150:	f100005f 	cmp	x2, #0x0
  407154:	9a9f07e4 	cset	x4, ne  // ne = any
  407158:	17fffee9 	b	0x406cfc
  40715c:	d28fffe0 	mov	x0, #0x7fff                	// #32767
  407160:	eb00003f 	cmp	x1, x0
  407164:	54ffed21 	b.ne	0x406f08  // b.any
  407168:	aa060060 	orr	x0, x3, x6
  40716c:	b5fffe60 	cbnz	x0, 0x407138
  407170:	d2800005 	mov	x5, #0x0                   	// #0
  407174:	d2800007 	mov	x7, #0x0                   	// #0
  407178:	52800000 	mov	w0, #0x0                   	// #0
  40717c:	17ffff3e 	b	0x406e74
  407180:	924d0062 	and	x2, x3, #0x8000000000000
  407184:	52800000 	mov	w0, #0x0                   	// #0
  407188:	34ffe144 	cbz	w4, 0x406db0
  40718c:	52800000 	mov	w0, #0x0                   	// #0
  407190:	365fe10c 	tbz	w12, #11, 0x406db0
  407194:	321d0000 	orr	w0, w0, #0x8
  407198:	17ffff06 	b	0x406db0
  40719c:	aa060061 	orr	x1, x3, x6
  4071a0:	b4001c41 	cbz	x1, 0x407528
  4071a4:	3100041f 	cmn	w0, #0x1
  4071a8:	54002680 	b.eq	0x407678  // b.none
  4071ac:	d28fffe1 	mov	x1, #0x7fff                	// #32767
  4071b0:	2a2003e0 	mvn	w0, w0
  4071b4:	eb0101bf 	cmp	x13, x1
  4071b8:	54fff541 	b.ne	0x407060  // b.any
  4071bc:	aa0a0040 	orr	x0, x2, x10
  4071c0:	b5ffe440 	cbnz	x0, 0x406e48
  4071c4:	d503201f 	nop
  4071c8:	d2800002 	mov	x2, #0x0                   	// #0
  4071cc:	9e670040 	fmov	d0, x2
  4071d0:	d3410160 	lsl	x0, x11, #63
  4071d4:	b2503803 	orr	x3, x0, #0x7fff000000000000
  4071d8:	9eaf0060 	fmov	v0.d[1], x3
  4071dc:	17ffff04 	b	0x406dec
  4071e0:	91000427 	add	x7, x1, #0x1
  4071e4:	f27f34ff 	tst	x7, #0x7ffe
  4071e8:	54000c21 	b.ne	0x40736c  // b.any
  4071ec:	aa06006b 	orr	x11, x3, x6
  4071f0:	b5001821 	cbnz	x1, 0x4074f4
  4071f4:	aa0a0047 	orr	x7, x2, x10
  4071f8:	b4001b0b 	cbz	x11, 0x407558
  4071fc:	b40012a7 	cbz	x7, 0x407450
  407200:	ab0a00c6 	adds	x6, x6, x10
  407204:	9a030043 	adc	x3, x2, x3
  407208:	b69fdb43 	tbz	x3, #51, 0x406d70
  40720c:	924cf863 	and	x3, x3, #0xfff7ffffffffffff
  407210:	924008c0 	and	x0, x6, #0x7
  407214:	52800004 	mov	w4, #0x0                   	// #0
  407218:	d2800021 	mov	x1, #0x1                   	// #1
  40721c:	17fffeda 	b	0x406d84
  407220:	eb0a00c9 	subs	x9, x6, x10
  407224:	eb0a00df 	cmp	x6, x10
  407228:	da020065 	sbc	x5, x3, x2
  40722c:	b7980b65 	tbnz	x5, #51, 0x407398
  407230:	aa050127 	orr	x7, x9, x5
  407234:	b50013a7 	cbnz	x7, 0x4074a8
  407238:	926a058c 	and	x12, x12, #0xc00000
  40723c:	d2800005 	mov	x5, #0x0                   	// #0
  407240:	f160019f 	cmp	x12, #0x800, lsl #12
  407244:	d2800001 	mov	x1, #0x0                   	// #0
  407248:	1a9f17e8 	cset	w8, eq  // eq = none
  40724c:	17ffff37 	b	0x406f28
  407250:	d28fffe1 	mov	x1, #0x7fff                	// #32767
  407254:	4b0003e0 	neg	w0, w0
  407258:	b24d0063 	orr	x3, x3, #0x8000000000000
  40725c:	eb0101bf 	cmp	x13, x1
  407260:	54ffdee0 	b.eq	0x406e3c  // b.none
  407264:	7101d01f 	cmp	w0, #0x74
  407268:	540005cc 	b.gt	0x407320
  40726c:	7100fc1f 	cmp	w0, #0x3f
  407270:	5400128c 	b.gt	0x4074c0
  407274:	52800801 	mov	w1, #0x40                  	// #64
  407278:	4b000021 	sub	w1, w1, w0
  40727c:	9ac024c5 	lsr	x5, x6, x0
  407280:	9ac120c6 	lsl	x6, x6, x1
  407284:	f10000df 	cmp	x6, #0x0
  407288:	9ac12066 	lsl	x6, x3, x1
  40728c:	9a9f07e1 	cset	x1, ne  // ne = any
  407290:	aa0500c6 	orr	x6, x6, x5
  407294:	9ac02460 	lsr	x0, x3, x0
  407298:	aa0100c6 	orr	x6, x6, x1
  40729c:	cb000042 	sub	x2, x2, x0
  4072a0:	14000023 	b	0x40732c
  4072a4:	aa0a0042 	orr	x2, x2, x10
  4072a8:	f100005f 	cmp	x2, #0x0
  4072ac:	9a9f07e0 	cset	x0, ne  // ne = any
  4072b0:	ab060006 	adds	x6, x0, x6
  4072b4:	9a833463 	cinc	x3, x3, cs  // cs = hs, nlast
  4072b8:	17ffff3a 	b	0x406fa0
  4072bc:	52801002 	mov	w2, #0x80                  	// #128
  4072c0:	4b000042 	sub	w2, w2, w0
  4072c4:	7101001f 	cmp	w0, #0x40
  4072c8:	5100fc26 	sub	w6, w1, #0x3f
  4072cc:	9ac22060 	lsl	x0, x3, x2
  4072d0:	aa0000a0 	orr	x0, x5, x0
  4072d4:	9a851005 	csel	x5, x0, x5, ne  // ne = any
  4072d8:	9ac62466 	lsr	x6, x3, x6
  4072dc:	f10000bf 	cmp	x5, #0x0
  4072e0:	d2800003 	mov	x3, #0x0                   	// #0
  4072e4:	9a9f07e0 	cset	x0, ne  // ne = any
  4072e8:	aa060006 	orr	x6, x0, x6
  4072ec:	aa0603e7 	mov	x7, x6
  4072f0:	17fffea1 	b	0x406d74
  4072f4:	52801005 	mov	w5, #0x80                  	// #128
  4072f8:	4b0000a5 	sub	w5, w5, w0
  4072fc:	71010000 	subs	w0, w0, #0x40
  407300:	9ac52045 	lsl	x5, x2, x5
  407304:	aa050145 	orr	x5, x10, x5
  407308:	9a8a10aa 	csel	x10, x5, x10, ne  // ne = any
  40730c:	9ac02442 	lsr	x2, x2, x0
  407310:	f100015f 	cmp	x10, #0x0
  407314:	9a9f07e4 	cset	x4, ne  // ne = any
  407318:	aa020084 	orr	x4, x4, x2
  40731c:	17fffe78 	b	0x406cfc
  407320:	aa060063 	orr	x3, x3, x6
  407324:	f100007f 	cmp	x3, #0x0
  407328:	9a9f07e6 	cset	x6, ne  // ne = any
  40732c:	eb060146 	subs	x6, x10, x6
  407330:	aa0d03e1 	mov	x1, x13
  407334:	da1f0043 	sbc	x3, x2, xzr
  407338:	aa0403ee 	mov	x14, x4
  40733c:	17fffe72 	b	0x406d04
  407340:	52801004 	mov	w4, #0x80                  	// #128
  407344:	4b000084 	sub	w4, w4, w0
  407348:	71010000 	subs	w0, w0, #0x40
  40734c:	9ac42044 	lsl	x4, x2, x4
  407350:	aa040144 	orr	x4, x10, x4
  407354:	9a8a108a 	csel	x10, x4, x10, ne  // ne = any
  407358:	9ac02442 	lsr	x2, x2, x0
  40735c:	f100015f 	cmp	x10, #0x0
  407360:	9a9f07e0 	cset	x0, ne  // ne = any
  407364:	aa020000 	orr	x0, x0, x2
  407368:	17ffffd2 	b	0x4072b0
  40736c:	d28fffe0 	mov	x0, #0x7fff                	// #32767
  407370:	eb0000ff 	cmp	x7, x0
  407374:	540011a0 	b.eq	0x4075a8  // b.none
  407378:	ab0a00c6 	adds	x6, x6, x10
  40737c:	aa0703e1 	mov	x1, x7
  407380:	9a030043 	adc	x3, x2, x3
  407384:	52800004 	mov	w4, #0x0                   	// #0
  407388:	d3410cc0 	ubfx	x0, x6, #1, #3
  40738c:	93c60466 	extr	x6, x3, x6, #1
  407390:	d341fc63 	lsr	x3, x3, #1
  407394:	17fffe7c 	b	0x406d84
  407398:	eb06015f 	cmp	x10, x6
  40739c:	2a0403e8 	mov	w8, w4
  4073a0:	da030045 	sbc	x5, x2, x3
  4073a4:	cb060146 	sub	x6, x10, x6
  4073a8:	aa0403ee 	mov	x14, x4
  4073ac:	17fffe58 	b	0x406d0c
  4073b0:	d28fffec 	mov	x12, #0x7fff                	// #32767
  4073b4:	eb0c003f 	cmp	x1, x12
  4073b8:	54000140 	b.eq	0x4073e0  // b.none
  4073bc:	eb0c01bf 	cmp	x13, x12
  4073c0:	540010a0 	b.eq	0x4075d4  // b.none
  4073c4:	b50001ab 	cbnz	x11, 0x4073f8
  4073c8:	b50010e7 	cbnz	x7, 0x4075e4
  4073cc:	92800005 	mov	x5, #0xffffffffffffffff    	// #-1
  4073d0:	92ffffe7 	mov	x7, #0xffffffffffff        	// #281474976710655
  4073d4:	52800020 	mov	w0, #0x1                   	// #1
  4073d8:	52800008 	mov	w8, #0x0                   	// #0
  4073dc:	17fffea8 	b	0x406e7c
  4073e0:	b4000f6b 	cbz	x11, 0x4075cc
  4073e4:	d372fc60 	lsr	x0, x3, #50
  4073e8:	eb0101bf 	cmp	x13, x1
  4073ec:	d2400000 	eor	x0, x0, #0x1
  4073f0:	12000000 	and	w0, w0, #0x1
  4073f4:	54000f00 	b.eq	0x4075d4  // b.none
  4073f8:	b4ffd327 	cbz	x7, 0x406e5c
  4073fc:	b3430865 	bfi	x5, x3, #61, #3
  407400:	d343fc67 	lsr	x7, x3, #3
  407404:	b69000e3 	tbz	x3, #50, 0x407420
  407408:	d343fc41 	lsr	x1, x2, #3
  40740c:	b79000a2 	tbnz	x2, #50, 0x407420
  407410:	aa0903e5 	mov	x5, x9
  407414:	2a0403e8 	mov	w8, w4
  407418:	b3430845 	bfi	x5, x2, #61, #3
  40741c:	aa0103e7 	mov	x7, x1
  407420:	93c5f4e7 	extr	x7, x7, x5, #61
  407424:	b34308e5 	bfi	x5, x7, #61, #3
  407428:	d343fce7 	lsr	x7, x7, #3
  40742c:	17fffe92 	b	0x406e74
  407430:	eb0a00c6 	subs	x6, x6, x10
  407434:	da020063 	sbc	x3, x3, x2
  407438:	17fffe33 	b	0x406d04
  40743c:	b4000847 	cbz	x7, 0x407544
  407440:	aa0203e3 	mov	x3, x2
  407444:	aa0a03e6 	mov	x6, x10
  407448:	2a0403e8 	mov	w8, w4
  40744c:	aa0403ee 	mov	x14, x4
  407450:	d2800001 	mov	x1, #0x0                   	// #0
  407454:	d2800002 	mov	x2, #0x0                   	// #0
  407458:	17ffff4d 	b	0x40718c
  40745c:	f26a0582 	ands	x2, x12, #0xc00000
  407460:	54000460 	b.eq	0x4074ec  // b.none
  407464:	f150005f 	cmp	x2, #0x400, lsl #12
  407468:	52000100 	eor	w0, w8, #0x1
  40746c:	1a9f17e1 	cset	w1, eq  // eq = none
  407470:	6a00003f 	tst	w1, w0
  407474:	54000a61 	b.ne	0x4075c0  // b.any
  407478:	f160005f 	cmp	x2, #0x800, lsl #12
  40747c:	54000cc0 	b.eq	0x407614  // b.none
  407480:	f150005f 	cmp	x2, #0x400, lsl #12
  407484:	52800280 	mov	w0, #0x14                  	// #20
  407488:	54ffda81 	b.ne	0x406fd8  // b.any
  40748c:	92800003 	mov	x3, #0xffffffffffffffff    	// #-1
  407490:	d28fffc1 	mov	x1, #0x7ffe                	// #32766
  407494:	aa0303e6 	mov	x6, x3
  407498:	52800004 	mov	w4, #0x0                   	// #0
  40749c:	52800280 	mov	w0, #0x14                  	// #20
  4074a0:	b5ffe0ee 	cbnz	x14, 0x4070bc
  4074a4:	17ffff04 	b	0x4070b4
  4074a8:	aa0903e6 	mov	x6, x9
  4074ac:	17fffe18 	b	0x406d0c
  4074b0:	aa060063 	orr	x3, x3, x6
  4074b4:	f100007f 	cmp	x3, #0x0
  4074b8:	9a9f07e6 	cset	x6, ne  // ne = any
  4074bc:	17fffef8 	b	0x40709c
  4074c0:	52801001 	mov	w1, #0x80                  	// #128
  4074c4:	4b000021 	sub	w1, w1, w0
  4074c8:	71010000 	subs	w0, w0, #0x40
  4074cc:	9ac12061 	lsl	x1, x3, x1
  4074d0:	aa0100c1 	orr	x1, x6, x1
  4074d4:	9a861026 	csel	x6, x1, x6, ne  // ne = any
  4074d8:	9ac02463 	lsr	x3, x3, x0
  4074dc:	f10000df 	cmp	x6, #0x0
  4074e0:	9a9f07e6 	cset	x6, ne  // ne = any
  4074e4:	aa0300c6 	orr	x6, x6, x3
  4074e8:	17ffff91 	b	0x40732c
  4074ec:	52800280 	mov	w0, #0x14                  	// #20
  4074f0:	17fffecb 	b	0x40701c
  4074f4:	d28fffe7 	mov	x7, #0x7fff                	// #32767
  4074f8:	eb07003f 	cmp	x1, x7
  4074fc:	540009a0 	b.eq	0x407630  // b.none
  407500:	eb0701bf 	cmp	x13, x7
  407504:	54000c80 	b.eq	0x407694  // b.none
  407508:	b5000a0b 	cbnz	x11, 0x407648
  40750c:	aa0203e3 	mov	x3, x2
  407510:	aa0a03e6 	mov	x6, x10
  407514:	d28fffe1 	mov	x1, #0x7fff                	// #32767
  407518:	17fffe52 	b	0x406e60
  40751c:	aa0a0040 	orr	x0, x2, x10
  407520:	b4ffe280 	cbz	x0, 0x407170
  407524:	17fffe49 	b	0x406e48
  407528:	d28fffe0 	mov	x0, #0x7fff                	// #32767
  40752c:	eb0001bf 	cmp	x13, x0
  407530:	54ffff60 	b.eq	0x40751c  // b.none
  407534:	aa0203e3 	mov	x3, x2
  407538:	aa0a03e6 	mov	x6, x10
  40753c:	aa0d03e1 	mov	x1, x13
  407540:	17fffe72 	b	0x406f08
  407544:	926a058c 	and	x12, x12, #0xc00000
  407548:	d2800005 	mov	x5, #0x0                   	// #0
  40754c:	f160019f 	cmp	x12, #0x800, lsl #12
  407550:	1a9f17e8 	cset	w8, eq  // eq = none
  407554:	17fffe75 	b	0x406f28
  407558:	aa0203e3 	mov	x3, x2
  40755c:	aa0a03e6 	mov	x6, x10
  407560:	17fffe05 	b	0x406d74
  407564:	52801001 	mov	w1, #0x80                  	// #128
  407568:	4b000021 	sub	w1, w1, w0
  40756c:	71010000 	subs	w0, w0, #0x40
  407570:	9ac12061 	lsl	x1, x3, x1
  407574:	aa0100c1 	orr	x1, x6, x1
  407578:	9a861026 	csel	x6, x1, x6, ne  // ne = any
  40757c:	9ac02463 	lsr	x3, x3, x0
  407580:	f10000df 	cmp	x6, #0x0
  407584:	9a9f07e6 	cset	x6, ne  // ne = any
  407588:	aa0300c6 	orr	x6, x6, x3
  40758c:	17fffec4 	b	0x40709c
  407590:	eb06015f 	cmp	x10, x6
  407594:	aa0d03e1 	mov	x1, x13
  407598:	da030043 	sbc	x3, x2, x3
  40759c:	cb060146 	sub	x6, x10, x6
  4075a0:	aa0403ee 	mov	x14, x4
  4075a4:	17fffdd8 	b	0x406d04
  4075a8:	f26a0582 	ands	x2, x12, #0xc00000
  4075ac:	54fffa00 	b.eq	0x4074ec  // b.none
  4075b0:	f150005f 	cmp	x2, #0x400, lsl #12
  4075b4:	52000100 	eor	w0, w8, #0x1
  4075b8:	1a9f0000 	csel	w0, w0, wzr, eq  // eq = none
  4075bc:	34fff5e0 	cbz	w0, 0x407478
  4075c0:	52800280 	mov	w0, #0x14                  	// #20
  4075c4:	d280000b 	mov	x11, #0x0                   	// #0
  4075c8:	17fffe95 	b	0x40701c
  4075cc:	eb0101bf 	cmp	x13, x1
  4075d0:	54ffefc1 	b.ne	0x4073c8  // b.any
  4075d4:	b40005a7 	cbz	x7, 0x407688
  4075d8:	f24e005f 	tst	x2, #0x4000000000000
  4075dc:	1a9f1400 	csinc	w0, w0, wzr, ne  // ne = any
  4075e0:	b5fff0eb 	cbnz	x11, 0x4073fc
  4075e4:	2a0403e8 	mov	w8, w4
  4075e8:	aa0203e3 	mov	x3, x2
  4075ec:	aa0a03e6 	mov	x6, x10
  4075f0:	d28fffe1 	mov	x1, #0x7fff                	// #32767
  4075f4:	17fffe1b 	b	0x406e60
  4075f8:	aa050127 	orr	x7, x9, x5
  4075fc:	b4fffa47 	cbz	x7, 0x407544
  407600:	aa0503e3 	mov	x3, x5
  407604:	92400920 	and	x0, x9, #0x7
  407608:	aa0903e6 	mov	x6, x9
  40760c:	52800024 	mov	w4, #0x1                   	// #1
  407610:	17fffddd 	b	0x406d84
  407614:	b50004ab 	cbnz	x11, 0x4076a8
  407618:	92800003 	mov	x3, #0xffffffffffffffff    	// #-1
  40761c:	52800008 	mov	w8, #0x0                   	// #0
  407620:	aa0303e6 	mov	x6, x3
  407624:	d28fffc1 	mov	x1, #0x7ffe                	// #32766
  407628:	52800280 	mov	w0, #0x14                  	// #20
  40762c:	17fffde2 	b	0x406db4
  407630:	b400042b 	cbz	x11, 0x4076b4
  407634:	d372fc60 	lsr	x0, x3, #50
  407638:	eb0101bf 	cmp	x13, x1
  40763c:	d2400000 	eor	x0, x0, #0x1
  407640:	12000000 	and	w0, w0, #0x1
  407644:	54000480 	b.eq	0x4076d4  // b.none
  407648:	aa0a004a 	orr	x10, x2, x10
  40764c:	b4ffc08a 	cbz	x10, 0x406e5c
  407650:	b3430865 	bfi	x5, x3, #61, #3
  407654:	d343fc67 	lsr	x7, x3, #3
  407658:	b697ee43 	tbz	x3, #50, 0x407420
  40765c:	d343fc41 	lsr	x1, x2, #3
  407660:	b797ee02 	tbnz	x2, #50, 0x407420
  407664:	9240f125 	and	x5, x9, #0x1fffffffffffffff
  407668:	2a0403e8 	mov	w8, w4
  40766c:	aa02f4a5 	orr	x5, x5, x2, lsl #61
  407670:	aa0103e7 	mov	x7, x1
  407674:	17ffff6b 	b	0x407420
  407678:	ab0a00c6 	adds	x6, x6, x10
  40767c:	aa0d03e1 	mov	x1, x13
  407680:	9a030043 	adc	x3, x2, x3
  407684:	17fffe47 	b	0x406fa0
  407688:	b4ffea2b 	cbz	x11, 0x4073cc
  40768c:	d28fffe1 	mov	x1, #0x7fff                	// #32767
  407690:	17fffdf4 	b	0x406e60
  407694:	aa0a0041 	orr	x1, x2, x10
  407698:	b5000161 	cbnz	x1, 0x4076c4
  40769c:	b4ffd6ab 	cbz	x11, 0x407170
  4076a0:	d28fffe1 	mov	x1, #0x7fff                	// #32767
  4076a4:	17fffdef 	b	0x406e60
  4076a8:	52800280 	mov	w0, #0x14                  	// #20
  4076ac:	d280002b 	mov	x11, #0x1                   	// #1
  4076b0:	17fffe5b 	b	0x40701c
  4076b4:	eb0101bf 	cmp	x13, x1
  4076b8:	54fff2a1 	b.ne	0x40750c  // b.any
  4076bc:	aa0a0041 	orr	x1, x2, x10
  4076c0:	b4ffd581 	cbz	x1, 0x407170
  4076c4:	f24e005f 	tst	x2, #0x4000000000000
  4076c8:	1a9f1400 	csinc	w0, w0, wzr, ne  // ne = any
  4076cc:	b5fffc2b 	cbnz	x11, 0x407650
  4076d0:	17ffff8f 	b	0x40750c
  4076d4:	aa0a0041 	orr	x1, x2, x10
  4076d8:	b5ffff61 	cbnz	x1, 0x4076c4
  4076dc:	d28fffe1 	mov	x1, #0x7fff                	// #32767
  4076e0:	17fffde0 	b	0x406e60
  4076e4:	d2800005 	mov	x5, #0x0                   	// #0
  4076e8:	528fffe1 	mov	w1, #0x7fff                	// #32767
  4076ec:	d2800007 	mov	x7, #0x0                   	// #0
  4076f0:	17fffdb8 	b	0x406dd0
  4076f4:	d503201f 	nop
  4076f8:	a9bd7bfd 	stp	x29, x30, [sp, #-48]!
  4076fc:	910003fd 	mov	x29, sp
  407700:	f9000bf3 	str	x19, [sp, #16]
  407704:	3d800be0 	str	q0, [sp, #32]
  407708:	a94207e0 	ldp	x0, x1, [sp, #32]
  40770c:	d53b4402 	mrs	x2, fpcr
  407710:	aa0003e3 	mov	x3, x0
  407714:	d370f824 	ubfx	x4, x1, #48, #15
  407718:	d287ffc0 	mov	x0, #0x3ffe                	// #16382
  40771c:	eb00009f 	cmp	x4, x0
  407720:	d340bc20 	ubfx	x0, x1, #0, #48
  407724:	5400016c 	b.gt	0x407750
  407728:	b5000524 	cbnz	x4, 0x4077cc
  40772c:	aa030000 	orr	x0, x0, x3
  407730:	52800013 	mov	w19, #0x0                   	// #0
  407734:	b4000060 	cbz	x0, 0x407740
  407738:	52800200 	mov	w0, #0x10                  	// #16
  40773c:	940000f1 	bl	0x407b00
  407740:	2a1303e0 	mov	w0, w19
  407744:	f9400bf3 	ldr	x19, [sp, #16]
  407748:	a8c37bfd 	ldp	x29, x30, [sp], #48
  40774c:	d65f03c0 	ret
  407750:	d37ffc33 	lsr	x19, x1, #63
  407754:	d28803a5 	mov	x5, #0x401d                	// #16413
  407758:	12001e62 	and	w2, w19, #0xff
  40775c:	eb05009f 	cmp	x4, x5
  407760:	540001ad 	b.le	0x407794
  407764:	d28803c1 	mov	x1, #0x401e                	// #16414
  407768:	eb01009f 	cmp	x4, x1
  40776c:	12b00013 	mov	w19, #0x7fffffff            	// #2147483647
  407770:	1a9f0041 	csel	w1, w2, wzr, eq  // eq = none
  407774:	0b130053 	add	w19, w2, w19
  407778:	34000321 	cbz	w1, 0x4077dc
  40777c:	eb4047ff 	cmp	xzr, x0, lsr #17
  407780:	540002e1 	b.ne	0x4077dc  // b.any
  407784:	aa00bc60 	orr	x0, x3, x0, lsl #47
  407788:	b4fffdc0 	cbz	x0, 0x407740
  40778c:	52800200 	mov	w0, #0x10                  	// #16
  407790:	17ffffeb 	b	0x40773c
  407794:	aa0403e1 	mov	x1, x4
  407798:	b2500000 	orr	x0, x0, #0x1000000000000
  40779c:	528805f3 	mov	w19, #0x402f                	// #16431
  4077a0:	1287fdc4 	mov	w4, #0xffffc011            	// #-16367
  4077a4:	0b040024 	add	w4, w1, w4
  4077a8:	4b010261 	sub	w1, w19, w1
  4077ac:	7100005f 	cmp	w2, #0x0
  4077b0:	9ac12413 	lsr	x19, x0, x1
  4077b4:	5a930673 	cneg	w19, w19, ne  // ne = any
  4077b8:	9ac42000 	lsl	x0, x0, x4
  4077bc:	aa030000 	orr	x0, x0, x3
  4077c0:	b4fffc00 	cbz	x0, 0x407740
  4077c4:	52800200 	mov	w0, #0x10                  	// #16
  4077c8:	17ffffdd 	b	0x40773c
  4077cc:	52800013 	mov	w19, #0x0                   	// #0
  4077d0:	52800200 	mov	w0, #0x10                  	// #16
  4077d4:	940000cb 	bl	0x407b00
  4077d8:	17ffffda 	b	0x407740
  4077dc:	52800020 	mov	w0, #0x1                   	// #1
  4077e0:	940000c8 	bl	0x407b00
  4077e4:	17ffffd7 	b	0x407740
  4077e8:	a9bd7bfd 	stp	x29, x30, [sp, #-48]!
  4077ec:	910003fd 	mov	x29, sp
  4077f0:	f9000bf3 	str	x19, [sp, #16]
  4077f4:	3d800be0 	str	q0, [sp, #32]
  4077f8:	a94207e0 	ldp	x0, x1, [sp, #32]
  4077fc:	d53b4402 	mrs	x2, fpcr
  407800:	d370f823 	ubfx	x3, x1, #48, #15
  407804:	d287ffc4 	mov	x4, #0x3ffe                	// #16382
  407808:	aa0003e2 	mov	x2, x0
  40780c:	eb04007f 	cmp	x3, x4
  407810:	d340bc33 	ubfx	x19, x1, #0, #48
  407814:	5400020c 	b.gt	0x407854
  407818:	b5000103 	cbnz	x3, 0x407838
  40781c:	aa130000 	orr	x0, x0, x19
  407820:	52800013 	mov	w19, #0x0                   	// #0
  407824:	b50000a0 	cbnz	x0, 0x407838
  407828:	2a1303e0 	mov	w0, w19
  40782c:	f9400bf3 	ldr	x19, [sp, #16]
  407830:	a8c37bfd 	ldp	x29, x30, [sp], #48
  407834:	d65f03c0 	ret
  407838:	52800200 	mov	w0, #0x10                  	// #16
  40783c:	52800013 	mov	w19, #0x0                   	// #0
  407840:	940000b0 	bl	0x407b00
  407844:	2a1303e0 	mov	w0, w19
  407848:	f9400bf3 	ldr	x19, [sp, #16]
  40784c:	a8c37bfd 	ldp	x29, x30, [sp], #48
  407850:	d65f03c0 	ret
  407854:	d37ffc20 	lsr	x0, x1, #63
  407858:	d28803e4 	mov	x4, #0x401f                	// #16415
  40785c:	12001c00 	and	w0, w0, #0xff
  407860:	d28803c5 	mov	x5, #0x401e                	// #16414
  407864:	f2401c06 	ands	x6, x0, #0xff
  407868:	9a850084 	csel	x4, x4, x5, eq  // eq = none
  40786c:	eb03009f 	cmp	x4, x3
  407870:	540000cd 	b.le	0x407888
  407874:	b4000126 	cbz	x6, 0x407898
  407878:	52800020 	mov	w0, #0x1                   	// #1
  40787c:	52800013 	mov	w19, #0x0                   	// #0
  407880:	940000a0 	bl	0x407b00
  407884:	17fffff0 	b	0x407844
  407888:	51000413 	sub	w19, w0, #0x1
  40788c:	52800020 	mov	w0, #0x1                   	// #1
  407890:	9400009c 	bl	0x407b00
  407894:	17ffffec 	b	0x407844
  407898:	aa0303e1 	mov	x1, x3
  40789c:	b2500260 	orr	x0, x19, #0x1000000000000
  4078a0:	1287fdc3 	mov	w3, #0xffffc011            	// #-16367
  4078a4:	528805f3 	mov	w19, #0x402f                	// #16431
  4078a8:	0b030023 	add	w3, w1, w3
  4078ac:	4b010261 	sub	w1, w19, w1
  4078b0:	9ac32003 	lsl	x3, x0, x3
  4078b4:	aa020062 	orr	x2, x3, x2
  4078b8:	9ac12413 	lsr	x19, x0, x1
  4078bc:	52800200 	mov	w0, #0x10                  	// #16
  4078c0:	b5fffc02 	cbnz	x2, 0x407840
  4078c4:	17ffffd9 	b	0x407828
  4078c8:	7100001f 	cmp	w0, #0x0
  4078cc:	34000260 	cbz	w0, 0x407918
  4078d0:	5a80a401 	cneg	w1, w0, lt  // lt = tstop
  4078d4:	528807c4 	mov	w4, #0x403e                	// #16446
  4078d8:	dac01023 	clz	x3, x1
  4078dc:	528805e2 	mov	w2, #0x402f                	// #16431
  4078e0:	4b030084 	sub	w4, w4, w3
  4078e4:	531f7c00 	lsr	w0, w0, #31
  4078e8:	4b040042 	sub	w2, w2, w4
  4078ec:	d2800003 	mov	x3, #0x0                   	// #0
  4078f0:	12003884 	and	w4, w4, #0x7fff
  4078f4:	9ac22021 	lsl	x1, x1, x2
  4078f8:	9240bc21 	and	x1, x1, #0xffffffffffff
  4078fc:	2a003c80 	orr	w0, w4, w0, lsl #15
  407900:	d2800002 	mov	x2, #0x0                   	// #0
  407904:	b340bc23 	bfxil	x3, x1, #0, #48
  407908:	9e670040 	fmov	d0, x2
  40790c:	b3503c03 	bfi	x3, x0, #48, #16
  407910:	9eaf0060 	fmov	v0.d[1], x3
  407914:	d65f03c0 	ret
  407918:	52800004 	mov	w4, #0x0                   	// #0
  40791c:	d2800001 	mov	x1, #0x0                   	// #0
  407920:	52800000 	mov	w0, #0x0                   	// #0
  407924:	d2800003 	mov	x3, #0x0                   	// #0
  407928:	2a003c80 	orr	w0, w4, w0, lsl #15
  40792c:	b340bc23 	bfxil	x3, x1, #0, #48
  407930:	d2800002 	mov	x2, #0x0                   	// #0
  407934:	9e670040 	fmov	d0, x2
  407938:	b3503c03 	bfi	x3, x0, #48, #16
  40793c:	9eaf0060 	fmov	v0.d[1], x3
  407940:	d65f03c0 	ret
  407944:	d503201f 	nop
  407948:	34000220 	cbz	w0, 0x40798c
  40794c:	2a0003e0 	mov	w0, w0
  407950:	528807c1 	mov	w1, #0x403e                	// #16446
  407954:	dac01003 	clz	x3, x0
  407958:	528805e2 	mov	w2, #0x402f                	// #16431
  40795c:	4b030021 	sub	w1, w1, w3
  407960:	d2800003 	mov	x3, #0x0                   	// #0
  407964:	4b010042 	sub	w2, w2, w1
  407968:	12003821 	and	w1, w1, #0x7fff
  40796c:	9ac22000 	lsl	x0, x0, x2
  407970:	9240bc00 	and	x0, x0, #0xffffffffffff
  407974:	d2800002 	mov	x2, #0x0                   	// #0
  407978:	9e670040 	fmov	d0, x2
  40797c:	b340bc03 	bfxil	x3, x0, #0, #48
  407980:	b3503c23 	bfi	x3, x1, #48, #16
  407984:	9eaf0060 	fmov	v0.d[1], x3
  407988:	d65f03c0 	ret
  40798c:	d2800000 	mov	x0, #0x0                   	// #0
  407990:	d2800003 	mov	x3, #0x0                   	// #0
  407994:	b340bc03 	bfxil	x3, x0, #0, #48
  407998:	d2800002 	mov	x2, #0x0                   	// #0
  40799c:	9e670040 	fmov	d0, x2
  4079a0:	52800001 	mov	w1, #0x0                   	// #0
  4079a4:	b3503c23 	bfi	x3, x1, #48, #16
  4079a8:	9eaf0060 	fmov	v0.d[1], x3
  4079ac:	d65f03c0 	ret
  4079b0:	d53b4400 	mrs	x0, fpcr
  4079b4:	9e660000 	fmov	x0, d0
  4079b8:	d374f801 	ubfx	x1, x0, #52, #11
  4079bc:	d37ffc04 	lsr	x4, x0, #63
  4079c0:	91000422 	add	x2, x1, #0x1
  4079c4:	12001c84 	and	w4, w4, #0xff
  4079c8:	f27f245f 	tst	x2, #0x7fe
  4079cc:	d340cc00 	ubfx	x0, x0, #0, #52
  4079d0:	540001a0 	b.eq	0x407a04  // b.none
  4079d4:	d344fc05 	lsr	x5, x0, #4
  4079d8:	d2800003 	mov	x3, #0x0                   	// #0
  4079dc:	9240bca5 	and	x5, x5, #0xffffffffffff
  4079e0:	52878002 	mov	w2, #0x3c00                	// #15360
  4079e4:	0b020021 	add	w1, w1, w2
  4079e8:	d3440c00 	lsl	x0, x0, #60
  4079ec:	b340bca3 	bfxil	x3, x5, #0, #48
  4079f0:	9e670000 	fmov	d0, x0
  4079f4:	b3503823 	bfi	x3, x1, #48, #15
  4079f8:	b3410083 	bfi	x3, x4, #63, #1
  4079fc:	9eaf0060 	fmov	v0.d[1], x3
  407a00:	d65f03c0 	ret
  407a04:	b50002a1 	cbnz	x1, 0x407a58
  407a08:	b40004e0 	cbz	x0, 0x407aa4
  407a0c:	dac01002 	clz	x2, x0
  407a10:	7100385f 	cmp	w2, #0xe
  407a14:	540006ec 	b.gt	0x407af0
  407a18:	1100c441 	add	w1, w2, #0x31
  407a1c:	528001e5 	mov	w5, #0xf                   	// #15
  407a20:	4b0200a5 	sub	w5, w5, w2
  407a24:	9ac52405 	lsr	x5, x0, x5
  407a28:	9ac12000 	lsl	x0, x0, x1
  407a2c:	9240bca5 	and	x5, x5, #0xffffffffffff
  407a30:	52878181 	mov	w1, #0x3c0c                	// #15372
  407a34:	d2800003 	mov	x3, #0x0                   	// #0
  407a38:	4b020021 	sub	w1, w1, w2
  407a3c:	12003821 	and	w1, w1, #0x7fff
  407a40:	b340bca3 	bfxil	x3, x5, #0, #48
  407a44:	9e670000 	fmov	d0, x0
  407a48:	b3503823 	bfi	x3, x1, #48, #15
  407a4c:	b3410083 	bfi	x3, x4, #63, #1
  407a50:	9eaf0060 	fmov	v0.d[1], x3
  407a54:	d65f03c0 	ret
  407a58:	b4000380 	cbz	x0, 0x407ac8
  407a5c:	d344fc01 	lsr	x1, x0, #4
  407a60:	d2800003 	mov	x3, #0x0                   	// #0
  407a64:	b2510021 	orr	x1, x1, #0x800000000000
  407a68:	d3440c02 	lsl	x2, x0, #60
  407a6c:	9e670040 	fmov	d0, x2
  407a70:	b340bc23 	bfxil	x3, x1, #0, #48
  407a74:	b2503863 	orr	x3, x3, #0x7fff000000000000
  407a78:	b3410083 	bfi	x3, x4, #63, #1
  407a7c:	9eaf0060 	fmov	v0.d[1], x3
  407a80:	b7980360 	tbnz	x0, #51, 0x407aec
  407a84:	a9be7bfd 	stp	x29, x30, [sp, #-32]!
  407a88:	52800020 	mov	w0, #0x1                   	// #1
  407a8c:	910003fd 	mov	x29, sp
  407a90:	3d8007e0 	str	q0, [sp, #16]
  407a94:	9400001b 	bl	0x407b00
  407a98:	3dc007e0 	ldr	q0, [sp, #16]
  407a9c:	a8c27bfd 	ldp	x29, x30, [sp], #32
  407aa0:	d65f03c0 	ret
  407aa4:	d2800005 	mov	x5, #0x0                   	// #0
  407aa8:	d2800003 	mov	x3, #0x0                   	// #0
  407aac:	b340bca3 	bfxil	x3, x5, #0, #48
  407ab0:	52800001 	mov	w1, #0x0                   	// #0
  407ab4:	9e670000 	fmov	d0, x0
  407ab8:	b3503823 	bfi	x3, x1, #48, #15
  407abc:	b3410083 	bfi	x3, x4, #63, #1
  407ac0:	9eaf0060 	fmov	v0.d[1], x3
  407ac4:	d65f03c0 	ret
  407ac8:	d2800005 	mov	x5, #0x0                   	// #0
  407acc:	d2800003 	mov	x3, #0x0                   	// #0
  407ad0:	b340bca3 	bfxil	x3, x5, #0, #48
  407ad4:	528fffe1 	mov	w1, #0x7fff                	// #32767
  407ad8:	9e670000 	fmov	d0, x0
  407adc:	b3503823 	bfi	x3, x1, #48, #15
  407ae0:	b3410083 	bfi	x3, x4, #63, #1
  407ae4:	9eaf0060 	fmov	v0.d[1], x3
  407ae8:	d65f03c0 	ret
  407aec:	d65f03c0 	ret
  407af0:	51003c45 	sub	w5, w2, #0xf
  407af4:	9ac52005 	lsl	x5, x0, x5
  407af8:	d2800000 	mov	x0, #0x0                   	// #0
  407afc:	17ffffcc 	b	0x407a2c
  407b00:	36000080 	tbz	w0, #0, 0x407b10
  407b04:	0f000401 	movi	v1.2s, #0x0
  407b08:	1e211820 	fdiv	s0, s1, s1
  407b0c:	d53b4421 	mrs	x1, fpsr
  407b10:	360800a0 	tbz	w0, #1, 0x407b24
  407b14:	1e2e1001 	fmov	s1, #1.000000000000000000e+00
  407b18:	0f000402 	movi	v2.2s, #0x0
  407b1c:	1e221820 	fdiv	s0, s1, s2
  407b20:	d53b4421 	mrs	x1, fpsr
  407b24:	36100100 	tbz	w0, #2, 0x407b44
  407b28:	5298b5c2 	mov	w2, #0xc5ae                	// #50606
  407b2c:	12b01001 	mov	w1, #0x7f7fffff            	// #2139095039
  407b30:	72ae93a2 	movk	w2, #0x749d, lsl #16
  407b34:	1e270021 	fmov	s1, w1
  407b38:	1e270042 	fmov	s2, w2
  407b3c:	1e222820 	fadd	s0, s1, s2
  407b40:	d53b4421 	mrs	x1, fpsr
  407b44:	36180080 	tbz	w0, #3, 0x407b54
  407b48:	0f044401 	movi	v1.2s, #0x80, lsl #16
  407b4c:	1e210820 	fmul	s0, s1, s1
  407b50:	d53b4421 	mrs	x1, fpsr
  407b54:	362000c0 	tbz	w0, #4, 0x407b6c
  407b58:	12b01000 	mov	w0, #0x7f7fffff            	// #2139095039
  407b5c:	1e2e1002 	fmov	s2, #1.000000000000000000e+00
  407b60:	1e270001 	fmov	s1, w0
  407b64:	1e223820 	fsub	s0, s1, s2
  407b68:	d53b4420 	mrs	x0, fpsr
  407b6c:	d65f03c0 	ret

Disassembly of section .fini:

0000000000407b70 <.fini>:
  407b70:	a9bf7bfd 	stp	x29, x30, [sp, #-16]!
  407b74:	910003fd 	mov	x29, sp
  407b78:	a8c17bfd 	ldp	x29, x30, [sp], #16
  407b7c:	d65f03c0 	ret
